(lp0
(lp1
(I133
I116
tp2
a(I116
I115
tp3
a(I115
I133
tp4
aa(lp5
(I154
I139
tp6
a(I139
I135
tp7
a(I135
I154
tp8
aa(lp9
(I78
I84
tp10
a(I84
I80
tp11
a(I80
I78
tp12
aa(lp13
(I8
I5
tp14
a(I5
I100
tp15
a(I100
I8
tp16
aa(lp17
(I49
I83
tp18
a(I83
I51
tp19
a(I51
I49
tp20
aa(lp21
(I153
I157
tp22
a(I157
I155
tp23
a(I155
I153
tp24
aa(lp25
(I191
I186
tp26
a(I186
I183
tp27
a(I183
I191
tp28
aa(lp29
(I60
I56
tp30
a(I56
I66
tp31
a(I66
I60
tp32
aa(lp33
(I175
I92
tp34
a(I92
I177
tp35
a(I177
I175
tp36
aa(lp37
(I125
I129
tp38
a(I129
I123
tp39
a(I123
I125
tp40
aa(lp41
(I32
I25
tp42
a(I25
I23
tp43
a(I23
I32
tp44
aa(lp45
(I85
I50
tp46
a(I50
I48
tp47
a(I48
I85
tp48
aa(lp49
(I74
I73
tp50
a(I73
I76
tp51
a(I76
I74
tp52
aa(lp53
(I179
I162
tp54
a(I162
I161
tp55
a(I161
I179
tp56
aa(lp57
(I108
I1
tp58
a(I1
I0
tp59
a(I0
I108
tp60
aa(lp61
(I29
I31
tp62
a(I31
I33
tp63
a(I33
I29
tp64
aa(lp65
(I111
I118
tp66
a(I118
I112
tp67
a(I112
I111
tp68
aa(lp69
(I195
I193
tp70
a(I193
I52
tp71
a(I52
I195
tp72
aa(lp73
(I128
I122
tp74
a(I122
I120
tp75
a(I120
I128
tp76
aa(lp77
(I87
I86
tp78
a(I86
I89
tp79
a(I89
I87
tp80
aa(lp81
(I6
I4
tp82
a(I4
I96
tp83
a(I96
I6
tp84
aa(lp85
(I171
I167
tp86
a(I167
I188
tp87
a(I188
I171
tp88
aa(lp89
(I149
I158
tp90
a(I158
I145
tp91
a(I145
I149
tp92
aa(lp93
(I136
I134
tp94
a(I134
I144
tp95
a(I144
I136
tp96
aa(lp97
(I98
I102
tp98
a(I102
I105
tp99
a(I105
I104
tp100
a(I104
I98
tp101
aa(lp102
(I73
I72
tp103
a(I72
I70
tp104
a(I70
I76
tp105
a(I76
I73
tp106
aa(lp107
(I18
I19
tp108
a(I19
I34
tp109
a(I34
I27
tp110
a(I27
I18
tp111
aa(lp112
(I119
I130
tp113
a(I130
I0
tp114
a(I0
I1
tp115
a(I1
I119
tp116
aa(lp117
(I170
I187
tp118
a(I187
I182
tp119
a(I182
I169
tp120
a(I169
I170
tp121
aa(lp122
(I142
I143
tp123
a(I143
I166
tp124
a(I166
I151
tp125
a(I151
I142
tp126
aa(lp127
(I170
I171
tp128
a(I171
I188
tp129
a(I188
I187
tp130
a(I187
I170
tp131
aa(lp132
(I190
I189
tp133
a(I189
I88
tp134
a(I88
I3
tp135
a(I3
I190
tp136
aa(lp137
(I92
I91
tp138
a(I91
I176
tp139
a(I176
I177
tp140
a(I177
I92
tp141
aa(lp142
(I78
I77
tp143
a(I77
I81
tp144
a(I81
I84
tp145
a(I84
I78
tp146
aa(lp147
(I24
I174
tp148
a(I174
I185
tp149
a(I185
I35
tp150
a(I35
I24
tp151
aa(lp152
(I63
I75
tp153
a(I75
I65
tp154
a(I65
I64
tp155
a(I64
I63
tp156
aa(lp157
(I141
I174
tp158
a(I174
I24
tp159
a(I24
I152
tp160
a(I152
I141
tp161
aa(lp162
(I93
I94
tp163
a(I94
I180
tp164
a(I180
I178
tp165
a(I178
I93
tp166
aa(lp167
(I121
I122
tp168
a(I122
I128
tp169
a(I128
I127
tp170
a(I127
I121
tp171
aa(lp172
(I33
I28
tp173
a(I28
I25
tp174
a(I25
I32
tp175
a(I32
I29
tp176
a(I29
I33
tp177
aa(lp178
(I109
I90
tp179
a(I90
I101
tp180
a(I101
I68
tp181
a(I68
I79
tp182
a(I79
I109
tp183
aa(lp184
(I11
I192
tp185
a(I192
I194
tp186
a(I194
I16
tp187
a(I16
I12
tp188
a(I12
I11
tp189
aa(lp190
(I53
I107
tp191
a(I107
I104
tp192
a(I104
I105
tp193
a(I105
I54
tp194
a(I54
I53
tp195
aa(lp196
(I139
I154
tp197
a(I154
I155
tp198
a(I155
I157
tp199
a(I157
I138
tp200
a(I138
I139
tp201
aa(lp202
(I157
I153
tp203
a(I153
I156
tp204
a(I156
I137
tp205
a(I137
I138
tp206
a(I138
I157
tp207
aa(lp208
(I72
I67
tp209
a(I67
I69
tp210
a(I69
I71
tp211
a(I71
I70
tp212
a(I70
I72
tp213
aa(lp214
(I169
I182
tp215
a(I182
I147
tp216
a(I147
I146
tp217
a(I146
I159
tp218
a(I159
I169
tp219
aa(lp220
(I113
I121
tp221
a(I121
I127
tp222
a(I127
I126
tp223
a(I126
I114
tp224
a(I114
I113
tp225
aa(lp226
(I107
I53
tp227
a(I53
I9
tp228
a(I9
I7
tp229
a(I7
I106
tp230
a(I106
I107
tp231
aa(lp232
(I185
I2
tp233
a(I2
I46
tp234
a(I46
I57
tp235
a(I57
I35
tp236
a(I35
I185
tp237
aa(lp238
(I127
I128
tp239
a(I128
I120
tp240
a(I120
I124
tp241
a(I124
I126
tp242
a(I126
I127
tp243
aa(lp244
(I14
I15
tp245
a(I15
I10
tp246
a(I10
I11
tp247
a(I11
I12
tp248
a(I12
I14
tp249
aa(lp250
(I164
I103
tp251
a(I103
I97
tp252
a(I97
I95
tp253
a(I95
I165
tp254
a(I165
I164
tp255
aa(lp256
(I82
I83
tp257
a(I83
I49
tp258
a(I49
I50
tp259
a(I50
I85
tp260
a(I85
I82
tp261
aa(lp262
(I59
I69
tp263
a(I69
I67
tp264
a(I67
I61
tp265
a(I61
I58
tp266
a(I58
I59
tp267
aa(lp268
(I107
I106
tp269
a(I106
I99
tp270
a(I99
I98
tp271
a(I98
I104
tp272
a(I104
I107
tp273
aa(lp274
(I106
I7
tp275
a(I7
I8
tp276
a(I8
I100
tp277
a(I100
I99
tp278
a(I99
I106
tp279
aa(lp280
(I13
I79
tp281
a(I79
I68
tp282
a(I68
I46
tp283
a(I46
I2
tp284
a(I2
I13
tp285
aa(lp286
(I160
I165
tp287
a(I165
I95
tp288
a(I95
I94
tp289
a(I94
I93
tp290
a(I93
I160
tp291
aa(lp292
(I93
I178
tp293
a(I178
I179
tp294
a(I179
I161
tp295
a(I161
I160
tp296
a(I160
I93
tp297
aa(lp298
(I195
I52
tp299
a(I52
I22
tp300
a(I22
I16
tp301
a(I16
I194
tp302
a(I194
I195
tp303
aa(lp304
(I23
I26
tp305
a(I26
I30
tp306
a(I30
I31
tp307
a(I31
I29
tp308
a(I29
I32
tp309
a(I32
I23
tp310
aa(lp311
(I88
I86
tp312
a(I86
I87
tp313
a(I87
I172
tp314
a(I172
I168
tp315
a(I168
I3
tp316
a(I3
I88
tp317
aa(lp318
(I30
I26
tp319
a(I26
I27
tp320
a(I27
I34
tp321
a(I34
I36
tp322
a(I36
I37
tp323
a(I37
I30
tp324
aa(lp325
(I2
I185
tp326
a(I185
I174
tp327
a(I174
I141
tp328
a(I141
I163
tp329
a(I163
I13
tp330
a(I13
I2
tp331
aa(lp332
(I72
I73
tp333
a(I73
I74
tp334
a(I74
I62
tp335
a(I62
I61
tp336
a(I61
I67
tp337
a(I67
I72
tp338
aa(lp339
(I43
I42
tp340
a(I42
I37
tp341
a(I37
I36
tp342
a(I36
I38
tp343
a(I38
I41
tp344
a(I41
I43
tp345
aa(lp346
(I56
I45
tp347
a(I45
I44
tp348
a(I44
I64
tp349
a(I64
I65
tp350
a(I65
I66
tp351
a(I66
I56
tp352
aa(lp353
(I172
I87
tp354
a(I87
I89
tp355
a(I89
I91
tp356
a(I91
I92
tp357
a(I92
I175
tp358
a(I175
I172
tp359
aa(lp360
(I1
I108
tp361
a(I108
I163
tp362
a(I163
I141
tp363
a(I141
I152
tp364
a(I152
I119
tp365
a(I119
I1
tp366
aa(lp367
(I184
I186
tp368
a(I186
I191
tp369
a(I191
I192
tp370
a(I192
I11
tp371
a(I11
I10
tp372
a(I10
I184
tp373
aa(lp374
(I36
I34
tp375
a(I34
I19
tp376
a(I19
I21
tp377
a(I21
I39
tp378
a(I39
I40
tp379
a(I40
I38
tp380
a(I38
I36
tp381
aa(lp382
(I176
I91
tp383
a(I91
I89
tp384
a(I89
I86
tp385
a(I86
I88
tp386
a(I88
I189
tp387
a(I189
I173
tp388
a(I173
I176
tp389
aa(lp390
(I82
I81
tp391
a(I81
I77
tp392
a(I77
I43
tp393
a(I43
I41
tp394
a(I41
I51
tp395
a(I51
I83
tp396
a(I83
I82
tp397
aa(lp398
(I66
I65
tp399
a(I65
I75
tp400
a(I75
I71
tp401
a(I71
I69
tp402
a(I69
I59
tp403
a(I59
I60
tp404
a(I60
I66
tp405
aa(lp406
(I17
I18
tp407
a(I18
I27
tp408
a(I27
I26
tp409
a(I26
I23
tp410
a(I23
I25
tp411
a(I25
I28
tp412
a(I28
I17
tp413
aa(lp414
(I76
I70
tp415
a(I70
I71
tp416
a(I71
I75
tp417
a(I75
I63
tp418
a(I63
I62
tp419
a(I62
I74
tp420
a(I74
I76
tp421
aa(lp422
(I94
I95
tp423
a(I95
I97
tp424
a(I97
I96
tp425
a(I96
I4
tp426
a(I4
I181
tp427
a(I181
I180
tp428
a(I180
I94
tp429
aa(lp430
(I47
I80
tp431
a(I80
I84
tp432
a(I84
I81
tp433
a(I81
I82
tp434
a(I82
I85
tp435
a(I85
I48
tp436
a(I48
I47
tp437
aa(lp438
(I130
I109
tp439
a(I109
I79
tp440
a(I79
I13
tp441
a(I13
I163
tp442
a(I163
I108
tp443
a(I108
I0
tp444
a(I0
I130
tp445
aa(lp446
(I113
I114
tp447
a(I114
I110
tp448
a(I110
I112
tp449
a(I112
I118
tp450
a(I118
I115
tp451
a(I115
I116
tp452
a(I116
I117
tp453
a(I117
I113
tp454
aa(lp455
(I150
I156
tp456
a(I156
I153
tp457
a(I153
I155
tp458
a(I155
I154
tp459
a(I154
I135
tp460
a(I135
I136
tp461
a(I136
I144
tp462
a(I144
I150
tp463
aa(lp464
(I166
I143
tp465
a(I143
I129
tp466
a(I129
I125
tp467
a(I125
I117
tp468
a(I117
I116
tp469
a(I116
I133
tp470
a(I133
I132
tp471
a(I132
I166
tp472
aa(lp473
(I61
I62
tp474
a(I62
I63
tp475
a(I63
I64
tp476
a(I64
I44
tp477
a(I44
I40
tp478
a(I40
I39
tp479
a(I39
I58
tp480
a(I58
I61
tp481
aa(lp482
(I124
I120
tp483
a(I120
I122
tp484
a(I122
I121
tp485
a(I121
I113
tp486
a(I113
I117
tp487
a(I117
I125
tp488
a(I125
I123
tp489
a(I123
I124
tp490
aa(lp491
(I21
I20
tp492
a(I20
I45
tp493
a(I45
I56
tp494
a(I56
I60
tp495
a(I60
I59
tp496
a(I59
I58
tp497
a(I58
I39
tp498
a(I39
I21
tp499
aa(lp500
(I103
I102
tp501
a(I102
I98
tp502
a(I98
I99
tp503
a(I99
I100
tp504
a(I100
I5
tp505
a(I5
I6
tp506
a(I6
I96
tp507
a(I96
I97
tp508
a(I97
I103
tp509
aa(lp510
(I14
I17
tp511
a(I17
I28
tp512
a(I28
I33
tp513
a(I33
I31
tp514
a(I31
I30
tp515
a(I30
I37
tp516
a(I37
I42
tp517
a(I42
I15
tp518
a(I15
I14
tp519
aa(lp520
(I16
I22
tp521
a(I22
I20
tp522
a(I20
I21
tp523
a(I21
I19
tp524
a(I19
I18
tp525
a(I18
I17
tp526
a(I17
I14
tp527
a(I14
I12
tp528
a(I12
I16
tp529
aa(lp530
(I101
I131
tp531
a(I131
I132
tp532
a(I132
I133
tp533
a(I133
I115
tp534
a(I115
I118
tp535
a(I118
I111
tp536
a(I111
I57
tp537
a(I57
I46
tp538
a(I46
I68
tp539
a(I68
I101
tp540
aa(lp541
(I150
I144
tp542
a(I144
I134
tp543
a(I134
I142
tp544
a(I142
I151
tp545
a(I151
I146
tp546
a(I146
I147
tp547
a(I147
I148
tp548
a(I148
I149
tp549
a(I149
I145
tp550
a(I145
I150
tp551
aa(lp552
(I119
I152
tp553
a(I152
I24
tp554
a(I24
I35
tp555
a(I35
I57
tp556
a(I57
I111
tp557
a(I111
I112
tp558
a(I112
I110
tp559
a(I110
I90
tp560
a(I90
I109
tp561
a(I109
I130
tp562
a(I130
I119
tp563
aa(lp564
(I55
I54
tp565
a(I54
I105
tp566
a(I105
I102
tp567
a(I102
I103
tp568
a(I103
I164
tp569
a(I164
I140
tp570
a(I140
I137
tp571
a(I137
I156
tp572
a(I156
I150
tp573
a(I150
I145
tp574
a(I145
I158
tp575
a(I158
I55
tp576
aa(lp577
(I160
I161
tp578
a(I161
I162
tp579
a(I162
I159
tp580
a(I159
I146
tp581
a(I146
I151
tp582
a(I151
I166
tp583
a(I166
I132
tp584
a(I132
I131
tp585
a(I131
I140
tp586
a(I140
I164
tp587
a(I164
I165
tp588
a(I165
I160
tp589
aa(lp590
(I148
I147
tp591
a(I147
I182
tp592
a(I182
I187
tp593
a(I187
I188
tp594
a(I188
I167
tp595
a(I167
I173
tp596
a(I173
I189
tp597
a(I189
I190
tp598
a(I190
I183
tp599
a(I183
I186
tp600
a(I186
I184
tp601
a(I184
I148
tp602
aa(lp603
(I148
I184
tp604
a(I184
I10
tp605
a(I10
I15
tp606
a(I15
I42
tp607
a(I42
I43
tp608
a(I43
I77
tp609
a(I77
I78
tp610
a(I78
I80
tp611
a(I80
I47
tp612
a(I47
I55
tp613
a(I55
I158
tp614
a(I158
I149
tp615
a(I149
I148
tp616
aa(lp617
(I193
I195
tp618
a(I195
I194
tp619
a(I194
I192
tp620
a(I192
I191
tp621
a(I191
I183
tp622
a(I183
I190
tp623
a(I190
I3
tp624
a(I3
I168
tp625
a(I168
I181
tp626
a(I181
I4
tp627
a(I4
I6
tp628
a(I6
I5
tp629
a(I5
I8
tp630
a(I8
I7
tp631
a(I7
I9
tp632
a(I9
I193
tp633
aa(lp634
(I179
I178
tp635
a(I178
I180
tp636
a(I180
I181
tp637
a(I181
I168
tp638
a(I168
I172
tp639
a(I172
I175
tp640
a(I175
I177
tp641
a(I177
I176
tp642
a(I176
I173
tp643
a(I173
I167
tp644
a(I167
I171
tp645
a(I171
I170
tp646
a(I170
I169
tp647
a(I169
I159
tp648
a(I159
I162
tp649
a(I162
I179
tp650
aa(lp651
(I135
I139
tp652
a(I139
I138
tp653
a(I138
I137
tp654
a(I137
I140
tp655
a(I140
I131
tp656
a(I131
I101
tp657
a(I101
I90
tp658
a(I90
I110
tp659
a(I110
I114
tp660
a(I114
I126
tp661
a(I126
I124
tp662
a(I124
I123
tp663
a(I123
I129
tp664
a(I129
I143
tp665
a(I143
I142
tp666
a(I142
I134
tp667
a(I134
I136
tp668
a(I136
I135
tp669
aa(lp670
(I54
I55
tp671
a(I55
I47
tp672
a(I47
I48
tp673
a(I48
I50
tp674
a(I50
I49
tp675
a(I49
I51
tp676
a(I51
I41
tp677
a(I41
I38
tp678
a(I38
I40
tp679
a(I40
I44
tp680
a(I44
I45
tp681
a(I45
I20
tp682
a(I20
I22
tp683
a(I22
I52
tp684
a(I52
I193
tp685
a(I193
I9
tp686
a(I9
I53
tp687
a(I53
I54
tp688
aa.