(lp0
(lp1
(I711
I707
tp2
a(I707
I737
tp3
a(I737
I711
tp4
aa(lp5
(I439
I438
tp6
a(I438
I440
tp7
a(I440
I439
tp8
aa(lp9
(I1413
I1481
tp10
a(I1481
I1414
tp11
a(I1414
I1413
tp12
aa(lp13
(I1213
I1117
tp14
a(I1117
I1116
tp15
a(I1116
I1213
tp16
aa(lp17
(I1340
I1349
tp18
a(I1349
I1342
tp19
a(I1342
I1340
tp20
aa(lp21
(I1272
I1276
tp22
a(I1276
I1273
tp23
a(I1273
I1272
tp24
aa(lp25
(I927
I961
tp26
a(I961
I928
tp27
a(I928
I927
tp28
aa(lp29
(I288
I287
tp30
a(I287
I289
tp31
a(I289
I288
tp32
aa(lp33
(I148
I145
tp34
a(I145
I150
tp35
a(I150
I148
tp36
aa(lp37
(I1168
I1167
tp38
a(I1167
I1180
tp39
a(I1180
I1168
tp40
aa(lp41
(I306
I320
tp42
a(I320
I307
tp43
a(I307
I306
tp44
aa(lp45
(I731
I1374
tp46
a(I1374
I1152
tp47
a(I1152
I731
tp48
aa(lp49
(I517
I516
tp50
a(I516
I519
tp51
a(I519
I517
tp52
aa(lp53
(I630
I632
tp54
a(I632
I631
tp55
a(I631
I630
tp56
aa(lp57
(I264
I262
tp58
a(I262
I312
tp59
a(I312
I264
tp60
aa(lp61
(I1309
I1176
tp62
a(I1176
I1173
tp63
a(I1173
I1309
tp64
aa(lp65
(I483
I494
tp66
a(I494
I484
tp67
a(I484
I483
tp68
aa(lp69
(I913
I905
tp70
a(I905
I902
tp71
a(I902
I913
tp72
aa(lp73
(I1508
I1486
tp74
a(I1486
I745
tp75
a(I745
I1508
tp76
aa(lp77
(I1572
I1571
tp78
a(I1571
I178
tp79
a(I178
I1572
tp80
aa(lp81
(I970
I967
tp82
a(I967
I965
tp83
a(I965
I970
tp84
aa(lp85
(I1174
I1172
tp86
a(I1172
I1311
tp87
a(I1311
I1174
tp88
aa(lp89
(I1523
I1522
tp90
a(I1522
I1534
tp91
a(I1534
I1523
tp92
aa(lp93
(I349
I338
tp94
a(I338
I334
tp95
a(I334
I349
tp96
aa(lp97
(I1225
I1177
tp98
a(I1177
I1169
tp99
a(I1169
I1225
tp100
aa(lp101
(I461
I468
tp102
a(I468
I462
tp103
a(I462
I461
tp104
aa(lp105
(I142
I138
tp106
a(I138
I135
tp107
a(I135
I142
tp108
aa(lp109
(I21
I1587
tp110
a(I1587
I1584
tp111
a(I1584
I21
tp112
aa(lp113
(I1140
I1136
tp114
a(I1136
I1139
tp115
a(I1139
I1140
tp116
aa(lp117
(I195
I194
tp118
a(I194
I222
tp119
a(I222
I195
tp120
aa(lp121
(I812
I688
tp122
a(I688
I683
tp123
a(I683
I812
tp124
aa(lp125
(I1003
I1011
tp126
a(I1011
I1007
tp127
a(I1007
I1003
tp128
aa(lp129
(I981
I980
tp130
a(I980
I983
tp131
a(I983
I981
tp132
aa(lp133
(I1040
I1037
tp134
a(I1037
I1036
tp135
a(I1036
I1040
tp136
aa(lp137
(I1299
I1305
tp138
a(I1305
I1300
tp139
a(I1300
I1299
tp140
aa(lp141
(I1045
I883
tp142
a(I883
I881
tp143
a(I881
I1045
tp144
aa(lp145
(I1239
I1246
tp146
a(I1246
I1240
tp147
a(I1240
I1239
tp148
aa(lp149
(I196
I184
tp150
a(I184
I183
tp151
a(I183
I196
tp152
aa(lp153
(I51
I48
tp154
a(I48
I89
tp155
a(I89
I51
tp156
aa(lp157
(I976
I972
tp158
a(I972
I971
tp159
a(I971
I976
tp160
aa(lp161
(I1417
I1416
tp162
a(I1416
I1415
tp163
a(I1415
I1417
tp164
aa(lp165
(I40
I95
tp166
a(I95
I42
tp167
a(I42
I40
tp168
aa(lp169
(I248
I290
tp170
a(I290
I249
tp171
a(I249
I248
tp172
aa(lp173
(I973
I977
tp174
a(I977
I974
tp175
a(I974
I973
tp176
aa(lp177
(I1372
I1384
tp178
a(I1384
I1376
tp179
a(I1376
I1372
tp180
aa(lp181
(I1306
I1224
tp182
a(I1224
I1222
tp183
a(I1222
I1306
tp184
aa(lp185
(I662
I661
tp186
a(I661
I663
tp187
a(I663
I662
tp188
aa(lp189
(I374
I270
tp190
a(I270
I267
tp191
a(I267
I374
tp192
aa(lp193
(I343
I377
tp194
a(I377
I344
tp195
a(I344
I343
tp196
aa(lp197
(I3
I1585
tp198
a(I1585
I712
tp199
a(I712
I3
tp200
aa(lp201
(I1406
I1421
tp202
a(I1421
I1407
tp203
a(I1407
I1406
tp204
aa(lp205
(I213
I180
tp206
a(I180
I480
tp207
a(I480
I213
tp208
aa(lp209
(I221
I215
tp210
a(I215
I212
tp211
a(I212
I221
tp212
aa(lp213
(I767
I763
tp214
a(I763
I762
tp215
a(I762
I767
tp216
aa(lp217
(I1027
I1026
tp218
a(I1026
I1034
tp219
a(I1034
I1027
tp220
aa(lp221
(I953
I831
tp222
a(I831
I942
tp223
a(I942
I953
tp224
aa(lp225
(I887
I878
tp226
a(I878
I877
tp227
a(I877
I887
tp228
aa(lp229
(I614
I599
tp230
a(I599
I598
tp231
a(I598
I614
tp232
aa(lp233
(I333
I328
tp234
a(I328
I327
tp235
a(I327
I333
tp236
aa(lp237
(I108
I106
tp238
a(I106
I127
tp239
a(I127
I108
tp240
aa(lp241
(I1517
I1516
tp242
a(I1516
I1528
tp243
a(I1528
I1517
tp244
aa(lp245
(I238
I1556
tp246
a(I1556
I1553
tp247
a(I1553
I238
tp248
aa(lp249
(I37
I35
tp250
a(I35
I39
tp251
a(I39
I37
tp252
aa(lp253
(I478
I486
tp254
a(I486
I481
tp255
a(I481
I478
tp256
aa(lp257
(I458
I447
tp258
a(I447
I727
tp259
a(I727
I458
tp260
aa(lp261
(I527
I537
tp262
a(I537
I529
tp263
a(I529
I527
tp264
aa(lp265
(I1237
I1236
tp266
a(I1236
I1262
tp267
a(I1262
I1237
tp268
aa(lp269
(I856
I855
tp270
a(I855
I852
tp271
a(I852
I856
tp272
aa(lp273
(I1332
I1336
tp274
a(I1336
I1333
tp275
a(I1333
I1332
tp276
aa(lp277
(I1209
I1229
tp278
a(I1229
I1211
tp279
a(I1211
I1209
tp280
aa(lp281
(I259
I256
tp282
a(I256
I353
tp283
a(I353
I259
tp284
aa(lp285
(I408
I404
tp286
a(I404
I485
tp287
a(I485
I408
tp288
aa(lp289
(I354
I359
tp290
a(I359
I355
tp291
a(I355
I354
tp292
aa(lp293
(I811
I685
tp294
a(I685
I684
tp295
a(I684
I811
tp296
aa(lp297
(I734
I733
tp298
a(I733
I736
tp299
a(I736
I734
tp300
aa(lp301
(I1256
I1255
tp302
a(I1255
I1254
tp303
a(I1254
I1256
tp304
aa(lp305
(I1402
I1401
tp306
a(I1401
I1404
tp307
a(I1404
I1402
tp308
aa(lp309
(I1016
I1018
tp310
a(I1018
I1017
tp311
a(I1017
I1016
tp312
aa(lp313
(I1074
I1087
tp314
a(I1087
I1076
tp315
a(I1076
I1074
tp316
aa(lp317
(I1471
I1470
tp318
a(I1470
I241
tp319
a(I241
I1471
tp320
aa(lp321
(I25
I908
tp322
a(I908
I875
tp323
a(I875
I25
tp324
aa(lp325
(I989
I992
tp326
a(I992
I990
tp327
a(I990
I989
tp328
aa(lp329
(I1280
I1279
tp330
a(I1279
I1282
tp331
a(I1282
I1280
tp332
aa(lp333
(I1378
I1162
tp334
a(I1162
I1160
tp335
a(I1160
I1378
tp336
aa(lp337
(I115
I144
tp338
a(I144
I117
tp339
a(I117
I115
tp340
aa(lp341
(I1390
I1322
tp342
a(I1322
I1321
tp343
a(I1321
I1390
tp344
aa(lp345
(I499
I412
tp346
a(I412
I410
tp347
a(I410
I499
tp348
aa(lp349
(I524
I667
tp350
a(I667
I546
tp351
a(I546
I524
tp352
aa(lp353
(I399
I398
tp354
a(I398
I450
tp355
a(I450
I399
tp356
aa(lp357
(I1295
I1291
tp358
a(I1291
I1289
tp359
a(I1289
I1295
tp360
aa(lp361
(I220
I219
tp362
a(I219
I217
tp363
a(I217
I220
tp364
aa(lp365
(I1408
I1075
tp366
a(I1075
I1130
tp367
a(I1130
I1408
tp368
aa(lp369
(I1439
I1438
tp370
a(I1438
I1453
tp371
a(I1453
I1439
tp372
aa(lp373
(I896
I893
tp374
a(I893
I906
tp375
a(I906
I896
tp376
aa(lp377
(I568
I650
tp378
a(I650
I571
tp379
a(I571
I568
tp380
aa(lp381
(I771
I769
tp382
a(I769
I642
tp383
a(I642
I771
tp384
aa(lp385
(I1062
I1059
tp386
a(I1059
I1082
tp387
a(I1082
I1062
tp388
aa(lp389
(I11
I8
tp390
a(I8
I6
tp391
a(I6
I11
tp392
aa(lp393
(I565
I627
tp394
a(I627
I566
tp395
a(I566
I565
tp396
aa(lp397
(I886
I47
tp398
a(I47
I931
tp399
a(I931
I886
tp400
aa(lp401
(I900
I894
tp402
a(I894
I920
tp403
a(I920
I900
tp404
aa(lp405
(I1464
I1460
tp406
a(I1460
I534
tp407
a(I534
I1464
tp408
aa(lp409
(I750
I748
tp410
a(I748
I760
tp411
a(I760
I750
tp412
aa(lp413
(I246
I245
tp414
a(I245
I284
tp415
a(I284
I246
tp416
aa(lp417
(I1493
I1491
tp418
a(I1491
I1490
tp419
a(I1490
I1493
tp420
aa(lp421
(I206
I216
tp422
a(I216
I207
tp423
a(I207
I206
tp424
aa(lp425
(I944
I956
tp426
a(I956
I946
tp427
a(I946
I944
tp428
aa(lp429
(I201
I211
tp430
a(I211
I203
tp431
a(I203
I201
tp432
aa(lp433
(I93
I52
tp434
a(I52
I49
tp435
a(I49
I93
tp436
aa(lp437
(I321
I299
tp438
a(I299
I297
tp439
a(I297
I321
tp440
aa(lp441
(I830
I1328
tp442
a(I1328
I833
tp443
a(I833
I830
tp444
aa(lp445
(I552
I592
tp446
a(I592
I553
tp447
a(I553
I552
tp448
aa(lp449
(I365
I362
tp450
a(I362
I606
tp451
a(I606
I365
tp452
aa(lp453
(I1591
I1589
tp454
a(I1589
I7
tp455
a(I7
I1591
tp456
aa(lp457
(I1360
I1358
tp458
a(I1358
I1379
tp459
a(I1379
I1360
tp460
aa(lp461
(I210
I209
tp462
a(I209
I218
tp463
a(I218
I210
tp464
aa(lp465
(I1479
I1412
tp466
a(I1412
I1411
tp467
a(I1411
I1479
tp468
aa(lp469
(I804
I1420
tp470
a(I1420
I806
tp471
a(I806
I804
tp472
aa(lp473
(I44
I97
tp474
a(I97
I45
tp475
a(I45
I44
tp476
aa(lp477
(I214
I193
tp478
a(I193
I192
tp479
a(I192
I214
tp480
aa(lp481
(I463
I470
tp482
a(I470
I464
tp483
a(I464
I463
tp484
aa(lp485
(I191
I169
tp486
a(I169
I380
tp487
a(I380
I191
tp488
aa(lp489
(I958
I957
tp490
a(I957
I960
tp491
a(I960
I958
tp492
aa(lp493
(I1044
I1043
tp494
a(I1043
I1039
tp495
a(I1039
I1044
tp496
aa(lp497
(I1128
I1127
tp498
a(I1127
I1138
tp499
a(I1138
I1128
tp500
aa(lp501
(I680
I741
tp502
a(I741
I682
tp503
a(I682
I680
tp504
aa(lp505
(I1079
I1061
tp506
a(I1061
I1056
tp507
a(I1056
I1079
tp508
aa(lp509
(I1389
I803
tp510
a(I803
I801
tp511
a(I801
I1389
tp512
aa(lp513
(I719
I717
tp514
a(I717
I716
tp515
a(I716
I719
tp516
aa(lp517
(I796
I809
tp518
a(I809
I798
tp519
a(I798
I796
tp520
aa(lp521
(I1179
I1178
tp522
a(I1178
I1227
tp523
a(I1227
I1179
tp524
aa(lp525
(I140
I137
tp526
a(I137
I134
tp527
a(I134
I140
tp528
aa(lp529
(I730
I729
tp530
a(I729
I728
tp531
a(I728
I730
tp532
aa(lp533
(I427
I426
tp534
a(I426
I434
tp535
a(I434
I427
tp536
aa(lp537
(I1143
I1131
tp538
a(I1131
I1129
tp539
a(I1129
I1143
tp540
aa(lp541
(I153
I159
tp542
a(I159
I154
tp543
a(I154
I153
tp544
aa(lp545
(I258
I225
tp546
a(I225
I646
tp547
a(I646
I258
tp548
aa(lp549
(I1368
I1361
tp550
a(I1361
I1359
tp551
a(I1359
I1368
tp552
aa(lp553
(I242
I1504
tp554
a(I1504
I1502
tp555
a(I1502
I242
tp556
aa(lp557
(I1022
I911
tp558
a(I911
I910
tp559
a(I910
I1022
tp560
aa(lp561
(I620
I622
tp562
a(I622
I621
tp563
a(I621
I620
tp564
aa(lp565
(I605
I604
tp566
a(I604
I618
tp567
a(I618
I605
tp568
aa(lp569
(I230
I294
tp570
a(I294
I232
tp571
a(I232
I230
tp572
aa(lp573
(I844
I866
tp574
a(I866
I846
tp575
a(I846
I844
tp576
aa(lp577
(I90
I88
tp578
a(I88
I92
tp579
a(I92
I90
tp580
aa(lp581
(I451
I403
tp582
a(I403
I401
tp583
a(I401
I451
tp584
aa(lp585
(I820
I808
tp586
a(I808
I964
tp587
a(I964
I820
tp588
aa(lp589
(I836
I834
tp590
a(I834
I847
tp591
a(I847
I836
tp592
aa(lp593
(I358
I347
tp594
a(I347
I369
tp595
a(I369
I358
tp596
aa(lp597
(I602
I591
tp598
a(I591
I657
tp599
a(I657
I602
tp600
aa(lp601
(I653
I659
tp602
a(I659
I654
tp603
a(I654
I653
tp604
aa(lp605
(I1019
I986
tp606
a(I986
I1153
tp607
a(I1153
I1019
tp608
aa(lp609
(I827
I1050
tp610
a(I1050
I828
tp611
a(I828
I827
tp612
aa(lp613
(I322
I329
tp614
a(I329
I323
tp615
a(I323
I322
tp616
aa(lp617
(I1442
I1451
tp618
a(I1451
I1445
tp619
a(I1445
I1442
tp620
aa(lp621
(I917
I898
tp622
a(I898
I895
tp623
a(I895
I917
tp624
aa(lp625
(I57
I104
tp626
a(I104
I59
tp627
a(I59
I57
tp628
aa(lp629
(I1310
I1307
tp630
a(I1307
I1312
tp631
a(I1312
I1310
tp632
aa(lp633
(I523
I522
tp634
a(I522
I521
tp635
a(I521
I523
tp636
aa(lp637
(I1386
I1352
tp638
a(I1352
I1319
tp639
a(I1319
I1386
tp640
aa(lp641
(I1382
I1385
tp642
a(I1385
I1383
tp643
a(I1383
I1382
tp644
aa(lp645
(I1197
I1252
tp646
a(I1252
I1208
tp647
a(I1208
I1197
tp648
aa(lp649
(I1429
I788
tp650
a(I788
I787
tp651
a(I787
I1429
tp652
aa(lp653
(I1071
I1057
tp654
a(I1057
I1055
tp655
a(I1055
I1071
tp656
aa(lp657
(I624
I613
tp658
a(I613
I666
tp659
a(I666
I624
tp660
aa(lp661
(I31
I87
tp662
a(I87
I33
tp663
a(I33
I31
tp664
aa(lp665
(I789
I556
tp666
a(I556
I790
tp667
a(I790
I789
tp668
aa(lp669
(I1434
I1436
tp670
a(I1436
I1426
tp671
a(I1426
I1425
tp672
a(I1425
I1434
tp673
aa(lp674
(I735
I736
tp675
a(I736
I733
tp676
a(I733
I732
tp677
a(I732
I735
tp678
aa(lp679
(I1072
I1083
tp680
a(I1083
I1080
tp681
a(I1080
I1073
tp682
a(I1073
I1072
tp683
aa(lp684
(I882
I883
tp685
a(I883
I1045
tp686
a(I1045
I1031
tp687
a(I1031
I882
tp688
aa(lp689
(I388
I386
tp690
a(I386
I448
tp691
a(I448
I449
tp692
a(I449
I388
tp693
aa(lp694
(I461
I459
tp695
a(I459
I467
tp696
a(I467
I468
tp697
a(I468
I461
tp698
aa(lp699
(I171
I173
tp700
a(I173
I165
tp701
a(I165
I164
tp702
a(I164
I171
tp703
aa(lp704
(I913
I912
tp705
a(I912
I904
tp706
a(I904
I905
tp707
a(I905
I913
tp708
aa(lp709
(I1189
I1188
tp710
a(I1188
I1200
tp711
a(I1200
I1191
tp712
a(I1191
I1189
tp713
aa(lp714
(I1400
I1396
tp715
a(I1396
I1395
tp716
a(I1395
I1418
tp717
a(I1418
I1400
tp718
aa(lp719
(I1326
I818
tp720
a(I818
I821
tp721
a(I821
I1327
tp722
a(I1327
I1326
tp723
aa(lp724
(I940
I947
tp725
a(I947
I959
tp726
a(I959
I943
tp727
a(I943
I940
tp728
aa(lp729
(I234
I329
tp730
a(I329
I322
tp731
a(I322
I235
tp732
a(I235
I234
tp733
aa(lp734
(I1462
I1464
tp735
a(I1464
I534
tp736
a(I534
I533
tp737
a(I533
I1462
tp738
aa(lp739
(I954
I952
tp740
a(I952
I976
tp741
a(I976
I971
tp742
a(I971
I954
tp743
aa(lp744
(I755
I754
tp745
a(I754
I759
tp746
a(I759
I761
tp747
a(I761
I755
tp748
aa(lp749
(I544
I547
tp750
a(I547
I581
tp751
a(I581
I572
tp752
a(I572
I544
tp753
aa(lp754
(I1233
I1228
tp755
a(I1228
I1244
tp756
a(I1244
I1257
tp757
a(I1257
I1233
tp758
aa(lp759
(I806
I1420
tp760
a(I1420
I1392
tp761
a(I1392
I805
tp762
a(I805
I806
tp763
aa(lp764
(I807
I809
tp765
a(I809
I796
tp766
a(I796
I795
tp767
a(I795
I807
tp768
aa(lp769
(I190
I188
tp770
a(I188
I207
tp771
a(I207
I216
tp772
a(I216
I190
tp773
aa(lp774
(I740
I739
tp775
a(I739
I781
tp776
a(I781
I782
tp777
a(I782
I740
tp778
aa(lp779
(I1046
I702
tp780
a(I702
I700
tp781
a(I700
I851
tp782
a(I851
I1046
tp783
aa(lp784
(I1414
I1481
tp785
a(I1481
I1315
tp786
a(I1315
I1313
tp787
a(I1313
I1414
tp788
aa(lp789
(I613
I247
tp790
a(I247
I236
tp791
a(I236
I666
tp792
a(I666
I613
tp793
aa(lp794
(I1454
I1458
tp795
a(I1458
I1446
tp796
a(I1446
I1443
tp797
a(I1443
I1454
tp798
aa(lp799
(I892
I891
tp800
a(I891
I978
tp801
a(I978
I984
tp802
a(I984
I892
tp803
aa(lp804
(I962
I949
tp805
a(I949
I924
tp806
a(I924
I922
tp807
a(I922
I962
tp808
aa(lp809
(I561
I582
tp810
a(I582
I545
tp811
a(I545
I542
tp812
a(I542
I561
tp813
aa(lp814
(I143
I141
tp815
a(I141
I132
tp816
a(I132
I131
tp817
a(I131
I143
tp818
aa(lp819
(I1326
I1327
tp820
a(I1327
I1324
tp821
a(I1324
I1323
tp822
a(I1323
I1326
tp823
aa(lp824
(I979
I982
tp825
a(I982
I983
tp826
a(I983
I980
tp827
a(I980
I979
tp828
aa(lp829
(I70
I67
tp830
a(I67
I64
tp831
a(I64
I63
tp832
a(I63
I70
tp833
aa(lp834
(I379
I378
tp835
a(I378
I415
tp836
a(I415
I419
tp837
a(I419
I379
tp838
aa(lp839
(I1556
I238
tp840
a(I238
I237
tp841
a(I237
I1555
tp842
a(I1555
I1556
tp843
aa(lp844
(I369
I125
tp845
a(I125
I102
tp846
a(I102
I358
tp847
a(I358
I369
tp848
aa(lp849
(I1064
I1397
tp850
a(I1397
I1164
tp851
a(I1164
I1053
tp852
a(I1053
I1064
tp853
aa(lp854
(I638
I639
tp855
a(I639
I634
tp856
a(I634
I633
tp857
a(I633
I638
tp858
aa(lp859
(I303
I311
tp860
a(I311
I308
tp861
a(I308
I301
tp862
a(I301
I303
tp863
aa(lp864
(I1594
I177
tp865
a(I177
I170
tp866
a(I170
I1593
tp867
a(I1593
I1594
tp868
aa(lp869
(I1141
I1008
tp870
a(I1008
I1019
tp871
a(I1019
I1153
tp872
a(I1153
I1141
tp873
aa(lp874
(I1021
I1020
tp875
a(I1020
I1015
tp876
a(I1015
I1014
tp877
a(I1014
I1021
tp878
aa(lp879
(I1380
I1362
tp880
a(I1362
I1356
tp881
a(I1356
I1355
tp882
a(I1355
I1380
tp883
aa(lp884
(I928
I961
tp885
a(I961
I923
tp886
a(I923
I918
tp887
a(I918
I928
tp888
aa(lp889
(I993
I994
tp890
a(I994
I998
tp891
a(I998
I996
tp892
a(I996
I993
tp893
aa(lp894
(I1096
I1100
tp895
a(I1100
I1101
tp896
a(I1101
I1095
tp897
a(I1095
I1096
tp898
aa(lp899
(I564
I626
tp900
a(I626
I627
tp901
a(I627
I565
tp902
a(I565
I564
tp903
aa(lp904
(I352
I346
tp905
a(I346
I345
tp906
a(I345
I351
tp907
a(I351
I352
tp908
aa(lp909
(I452
I431
tp910
a(I431
I430
tp911
a(I430
I473
tp912
a(I473
I452
tp913
aa(lp914
(I1419
I80
tp915
a(I80
I147
tp916
a(I147
I1430
tp917
a(I1430
I1419
tp918
aa(lp919
(I1250
I1249
tp920
a(I1249
I1259
tp921
a(I1259
I1265
tp922
a(I1265
I1250
tp923
aa(lp924
(I1520
I1518
tp925
a(I1518
I1531
tp926
a(I1531
I1529
tp927
a(I1529
I1520
tp928
aa(lp929
(I305
I304
tp930
a(I304
I310
tp931
a(I310
I318
tp932
a(I318
I305
tp933
aa(lp934
(I240
I241
tp935
a(I241
I1470
tp936
a(I1470
I1469
tp937
a(I1469
I240
tp938
aa(lp939
(I152
I157
tp940
a(I157
I159
tp941
a(I159
I153
tp942
a(I153
I152
tp943
aa(lp944
(I173
I174
tp945
a(I174
I166
tp946
a(I166
I165
tp947
a(I165
I173
tp948
aa(lp949
(I871
I870
tp950
a(I870
I1028
tp951
a(I1028
I1029
tp952
a(I1029
I871
tp953
aa(lp954
(I113
I644
tp955
a(I644
I647
tp956
a(I647
I224
tp957
a(I224
I113
tp958
aa(lp959
(I618
I604
tp960
a(I604
I603
tp961
a(I603
I617
tp962
a(I617
I618
tp963
aa(lp964
(I1121
I1120
tp965
a(I1120
I1492
tp966
a(I1492
I1532
tp967
a(I1532
I1121
tp968
aa(lp969
(I1066
I1092
tp970
a(I1092
I1093
tp971
a(I1093
I1067
tp972
a(I1067
I1066
tp973
aa(lp974
(I588
I551
tp975
a(I551
I550
tp976
a(I550
I587
tp977
a(I587
I588
tp978
aa(lp979
(I795
I784
tp980
a(I784
I783
tp981
a(I783
I807
tp982
a(I807
I795
tp983
aa(lp984
(I583
I586
tp985
a(I586
I574
tp986
a(I574
I573
tp987
a(I573
I583
tp988
aa(lp989
(I25
I14
tp990
a(I14
I897
tp991
a(I897
I908
tp992
a(I908
I25
tp993
aa(lp994
(I1543
I1527
tp995
a(I1527
I1526
tp996
a(I1526
I34
tp997
a(I34
I1543
tp998
aa(lp999
(I443
I444
tp1000
a(I444
I389
tp1001
a(I389
I387
tp1002
a(I387
I443
tp1003
aa(lp1004
(I269
I1441
tp1005
a(I1441
I1430
tp1006
a(I1430
I147
tp1007
a(I147
I269
tp1008
aa(lp1009
(I1512
I1511
tp1010
a(I1511
I196
tp1011
a(I196
I183
tp1012
a(I183
I1512
tp1013
aa(lp1014
(I585
I584
tp1015
a(I584
I622
tp1016
a(I622
I620
tp1017
a(I620
I585
tp1018
aa(lp1019
(I615
I619
tp1020
a(I619
I601
tp1021
a(I601
I597
tp1022
a(I597
I615
tp1023
aa(lp1024
(I1462
I533
tp1025
a(I533
I532
tp1026
a(I532
I1461
tp1027
a(I1461
I1462
tp1028
aa(lp1029
(I821
I816
tp1030
a(I816
I1324
tp1031
a(I1324
I1327
tp1032
a(I1327
I821
tp1033
aa(lp1034
(I1449
I1479
tp1035
a(I1479
I1411
tp1036
a(I1411
I1409
tp1037
a(I1409
I1449
tp1038
aa(lp1039
(I1198
I1195
tp1040
a(I1195
I1290
tp1041
a(I1290
I1294
tp1042
a(I1294
I1198
tp1043
aa(lp1044
(I65
I71
tp1045
a(I71
I70
tp1046
a(I70
I63
tp1047
a(I63
I65
tp1048
aa(lp1049
(I1349
I1340
tp1050
a(I1340
I1339
tp1051
a(I1339
I1346
tp1052
a(I1346
I1349
tp1053
aa(lp1054
(I222
I194
tp1055
a(I194
I187
tp1056
a(I187
I204
tp1057
a(I204
I222
tp1058
aa(lp1059
(I1102
I1103
tp1060
a(I1103
I1110
tp1061
a(I1110
I1111
tp1062
a(I1111
I1102
tp1063
aa(lp1064
(I531
I530
tp1065
a(I530
I540
tp1066
a(I540
I548
tp1067
a(I548
I531
tp1068
aa(lp1069
(I1258
I1253
tp1070
a(I1253
I1251
tp1071
a(I1251
I1266
tp1072
a(I1266
I1258
tp1073
aa(lp1074
(I755
I761
tp1075
a(I761
I749
tp1076
a(I749
I747
tp1077
a(I747
I755
tp1078
aa(lp1079
(I179
I1565
tp1080
a(I1565
I1547
tp1081
a(I1547
I1546
tp1082
a(I1546
I179
tp1083
aa(lp1084
(I1287
I1205
tp1085
a(I1205
I1204
tp1086
a(I1204
I1283
tp1087
a(I1283
I1287
tp1088
aa(lp1089
(I515
I510
tp1090
a(I510
I509
tp1091
a(I509
I518
tp1092
a(I518
I515
tp1093
aa(lp1094
(I41
I96
tp1095
a(I96
I97
tp1096
a(I97
I44
tp1097
a(I44
I41
tp1098
aa(lp1099
(I598
I596
tp1100
a(I596
I595
tp1101
a(I595
I614
tp1102
a(I614
I598
tp1103
aa(lp1104
(I1105
I1148
tp1105
a(I1148
I1201
tp1106
a(I1201
I1106
tp1107
a(I1106
I1105
tp1108
aa(lp1109
(I673
I676
tp1110
a(I676
I677
tp1111
a(I677
I674
tp1112
a(I674
I673
tp1113
aa(lp1114
(I694
I839
tp1115
a(I839
I840
tp1116
a(I840
I695
tp1117
a(I695
I694
tp1118
aa(lp1119
(I348
I346
tp1120
a(I346
I352
tp1121
a(I352
I350
tp1122
a(I350
I348
tp1123
aa(lp1124
(I1386
I1375
tp1125
a(I1375
I1341
tp1126
a(I1341
I1352
tp1127
a(I1352
I1386
tp1128
aa(lp1129
(I737
I715
tp1130
a(I715
I710
tp1131
a(I710
I711
tp1132
a(I711
I737
tp1133
aa(lp1134
(I979
I933
tp1135
a(I933
I932
tp1136
a(I932
I982
tp1137
a(I982
I979
tp1138
aa(lp1139
(I1009
I1010
tp1140
a(I1010
I1021
tp1141
a(I1021
I1014
tp1142
a(I1014
I1009
tp1143
aa(lp1144
(I1133
I1132
tp1145
a(I1132
I1558
tp1146
a(I1558
I356
tp1147
a(I356
I1133
tp1148
aa(lp1149
(I1188
I1187
tp1150
a(I1187
I1199
tp1151
a(I1199
I1200
tp1152
a(I1200
I1188
tp1153
aa(lp1154
(I438
I437
tp1155
a(I437
I436
tp1156
a(I436
I440
tp1157
a(I440
I438
tp1158
aa(lp1159
(I1467
I1466
tp1160
a(I1466
I1475
tp1161
a(I1475
I1478
tp1162
a(I1478
I1467
tp1163
aa(lp1164
(I771
I642
tp1165
a(I642
I641
tp1166
a(I641
I770
tp1167
a(I770
I771
tp1168
aa(lp1169
(I1022
I910
tp1170
a(I910
I907
tp1171
a(I907
I1006
tp1172
a(I1006
I1022
tp1173
aa(lp1174
(I357
I531
tp1175
a(I531
I548
tp1176
a(I548
I361
tp1177
a(I361
I357
tp1178
aa(lp1179
(I1403
I1404
tp1180
a(I1404
I1401
tp1181
a(I1401
I1398
tp1182
a(I1398
I1403
tp1183
aa(lp1184
(I1444
I1445
tp1185
a(I1445
I1451
tp1186
a(I1451
I1450
tp1187
a(I1450
I1444
tp1188
aa(lp1189
(I299
I321
tp1190
a(I321
I317
tp1191
a(I317
I298
tp1192
a(I298
I299
tp1193
aa(lp1194
(I977
I966
tp1195
a(I966
I963
tp1196
a(I963
I974
tp1197
a(I974
I977
tp1198
aa(lp1199
(I1370
I1364
tp1200
a(I1364
I1362
tp1201
a(I1362
I1380
tp1202
a(I1380
I1370
tp1203
aa(lp1204
(I668
I669
tp1205
a(I669
I671
tp1206
a(I671
I672
tp1207
a(I672
I668
tp1208
aa(lp1209
(I638
I633
tp1210
a(I633
I778
tp1211
a(I778
I777
tp1212
a(I777
I638
tp1213
aa(lp1214
(I550
I549
tp1215
a(I549
I575
tp1216
a(I575
I587
tp1217
a(I587
I550
tp1218
aa(lp1219
(I441
I449
tp1220
a(I449
I448
tp1221
a(I448
I442
tp1222
a(I442
I441
tp1223
aa(lp1224
(I702
I1046
tp1225
a(I1046
I837
tp1226
a(I837
I701
tp1227
a(I701
I702
tp1228
aa(lp1229
(I1079
I1078
tp1230
a(I1078
I1060
tp1231
a(I1060
I1061
tp1232
a(I1061
I1079
tp1233
aa(lp1234
(I412
I499
tp1235
a(I499
I498
tp1236
a(I498
I411
tp1237
a(I411
I412
tp1238
aa(lp1239
(I931
I47
tp1240
a(I47
I1108
tp1241
a(I1108
I919
tp1242
a(I919
I931
tp1243
aa(lp1244
(I1052
I1051
tp1245
a(I1051
I1068
tp1246
a(I1068
I1054
tp1247
a(I1054
I1052
tp1248
aa(lp1249
(I636
I634
tp1250
a(I634
I639
tp1251
a(I639
I637
tp1252
a(I637
I636
tp1253
aa(lp1254
(I1391
I1421
tp1255
a(I1421
I1406
tp1256
a(I1406
I1393
tp1257
a(I1393
I1391
tp1258
aa(lp1259
(I224
I647
tp1260
a(I647
I648
tp1261
a(I648
I335
tp1262
a(I335
I224
tp1263
aa(lp1264
(I839
I694
tp1265
a(I694
I693
tp1266
a(I693
I823
tp1267
a(I823
I839
tp1268
aa(lp1269
(I1206
I1205
tp1270
a(I1205
I1287
tp1271
a(I1287
I1288
tp1272
a(I1288
I1206
tp1273
aa(lp1274
(I450
I398
tp1275
a(I398
I392
tp1276
a(I392
I390
tp1277
a(I390
I450
tp1278
aa(lp1279
(I684
I681
tp1280
a(I681
I794
tp1281
a(I794
I811
tp1282
a(I811
I684
tp1283
aa(lp1284
(I493
I492
tp1285
a(I492
I489
tp1286
a(I489
I490
tp1287
a(I490
I493
tp1288
aa(lp1289
(I156
I100
tp1290
a(I100
I99
tp1291
a(I99
I98
tp1292
a(I98
I156
tp1293
aa(lp1294
(I167
I172
tp1295
a(I172
I171
tp1296
a(I171
I164
tp1297
a(I164
I167
tp1298
aa(lp1299
(I1344
I1381
tp1300
a(I1381
I1371
tp1301
a(I1371
I1345
tp1302
a(I1345
I1344
tp1303
aa(lp1304
(I401
I396
tp1305
a(I396
I445
tp1306
a(I445
I451
tp1307
a(I451
I401
tp1308
aa(lp1309
(I1279
I1278
tp1310
a(I1278
I1281
tp1311
a(I1281
I1282
tp1312
a(I1282
I1279
tp1313
aa(lp1314
(I582
I581
tp1315
a(I581
I547
tp1316
a(I547
I545
tp1317
a(I545
I582
tp1318
aa(lp1319
(I158
I136
tp1320
a(I136
I91
tp1321
a(I91
I291
tp1322
a(I291
I158
tp1323
aa(lp1324
(I546
I667
tp1325
a(I667
I665
tp1326
a(I665
I535
tp1327
a(I535
I546
tp1328
aa(lp1329
(I609
I594
tp1330
a(I594
I593
tp1331
a(I593
I607
tp1332
a(I607
I609
tp1333
aa(lp1334
(I632
I630
tp1335
a(I630
I625
tp1336
a(I625
I623
tp1337
a(I623
I632
tp1338
aa(lp1339
(I249
I290
tp1340
a(I290
I229
tp1341
a(I229
I227
tp1342
a(I227
I249
tp1343
aa(lp1344
(I1098
I1091
tp1345
a(I1091
I1090
tp1346
a(I1090
I1144
tp1347
a(I1144
I1098
tp1348
aa(lp1349
(I1250
I1265
tp1350
a(I1265
I1266
tp1351
a(I1266
I1251
tp1352
a(I1251
I1250
tp1353
aa(lp1354
(I514
I508
tp1355
a(I508
I507
tp1356
a(I507
I525
tp1357
a(I525
I514
tp1358
aa(lp1359
(I863
I1038
tp1360
a(I1038
I868
tp1361
a(I868
I865
tp1362
a(I865
I863
tp1363
aa(lp1364
(I1277
I1271
tp1365
a(I1271
I1268
tp1366
a(I1268
I1270
tp1367
a(I1270
I1277
tp1368
aa(lp1369
(I1447
I1467
tp1370
a(I1467
I1478
tp1371
a(I1478
I1448
tp1372
a(I1448
I1447
tp1373
aa(lp1374
(I1341
I1375
tp1375
a(I1375
I1363
tp1376
a(I1363
I1330
tp1377
a(I1330
I1341
tp1378
aa(lp1379
(I851
I838
tp1380
a(I838
I837
tp1381
a(I837
I1046
tp1382
a(I1046
I851
tp1383
aa(lp1384
(I1549
I185
tp1385
a(I185
I197
tp1386
a(I197
I1550
tp1387
a(I1550
I1549
tp1388
aa(lp1389
(I1129
I1135
tp1390
a(I1135
I1142
tp1391
a(I1142
I1143
tp1392
a(I1143
I1129
tp1393
aa(lp1394
(I1457
I539
tp1395
a(I539
I538
tp1396
a(I538
I1456
tp1397
a(I1456
I1457
tp1398
aa(lp1399
(I1216
I1207
tp1400
a(I1207
I1206
tp1401
a(I1206
I1288
tp1402
a(I1288
I1216
tp1403
aa(lp1404
(I1537
I1535
tp1405
a(I1535
I1533
tp1406
a(I1533
I1538
tp1407
a(I1538
I1537
tp1408
aa(lp1409
(I562
I557
tp1410
a(I557
I664
tp1411
a(I664
I567
tp1412
a(I567
I562
tp1413
aa(lp1414
(I139
I130
tp1415
a(I130
I132
tp1416
a(I132
I141
tp1417
a(I141
I139
tp1418
aa(lp1419
(I205
I200
tp1420
a(I200
I215
tp1421
a(I215
I221
tp1422
a(I221
I205
tp1423
aa(lp1424
(I1238
I1245
tp1425
a(I1245
I1246
tp1426
a(I1246
I1239
tp1427
a(I1239
I1238
tp1428
aa(lp1429
(I781
I739
tp1430
a(I739
I738
tp1431
a(I738
I779
tp1432
a(I779
I781
tp1433
aa(lp1434
(I1199
I1187
tp1435
a(I1187
I1185
tp1436
a(I1185
I1192
tp1437
a(I1192
I1199
tp1438
aa(lp1439
(I1564
I1565
tp1440
a(I1565
I179
tp1441
a(I179
I1573
tp1442
a(I1573
I1564
tp1443
aa(lp1444
(I174
I120
tp1445
a(I120
I119
tp1446
a(I119
I166
tp1447
a(I166
I174
tp1448
aa(lp1449
(I1301
I1218
tp1450
a(I1218
I1217
tp1451
a(I1217
I1296
tp1452
a(I1296
I1301
tp1453
aa(lp1454
(I690
I689
tp1455
a(I689
I814
tp1456
a(I814
I692
tp1457
a(I692
I690
tp1458
aa(lp1459
(I281
I288
tp1460
a(I288
I289
tp1461
a(I289
I282
tp1462
a(I282
I281
tp1463
aa(lp1464
(I1291
I1295
tp1465
a(I1295
I1294
tp1466
a(I1294
I1290
tp1467
a(I1290
I1291
tp1468
aa(lp1469
(I1018
I1016
tp1470
a(I1016
I1013
tp1471
a(I1013
I1012
tp1472
a(I1012
I1018
tp1473
aa(lp1474
(I1302
I1220
tp1475
a(I1220
I1218
tp1476
a(I1218
I1301
tp1477
a(I1301
I1302
tp1478
aa(lp1479
(I1064
I1075
tp1480
a(I1075
I1408
tp1481
a(I1408
I1397
tp1482
a(I1397
I1064
tp1483
aa(lp1484
(I1354
I1370
tp1485
a(I1370
I1380
tp1486
a(I1380
I1355
tp1487
a(I1355
I1354
tp1488
aa(lp1489
(I1304
I1303
tp1490
a(I1303
I1298
tp1491
a(I1298
I1300
tp1492
a(I1300
I1305
tp1493
a(I1305
I1304
tp1494
aa(lp1495
(I347
I280
tp1496
a(I280
I114
tp1497
a(I114
I125
tp1498
a(I125
I369
tp1499
a(I369
I347
tp1500
aa(lp1501
(I1495
I1513
tp1502
a(I1513
I1517
tp1503
a(I1517
I1528
tp1504
a(I1528
I1496
tp1505
a(I1496
I1495
tp1506
aa(lp1507
(I1297
I1186
tp1508
a(I1186
I1219
tp1509
a(I1219
I1230
tp1510
a(I1230
I1264
tp1511
a(I1264
I1297
tp1512
aa(lp1513
(I1576
I1577
tp1514
a(I1577
I1575
tp1515
a(I1575
I1566
tp1516
a(I1566
I1569
tp1517
a(I1569
I1576
tp1518
aa(lp1519
(I1503
I1504
tp1520
a(I1504
I242
tp1521
a(I242
I239
tp1522
a(I239
I226
tp1523
a(I226
I1503
tp1524
aa(lp1525
(I498
I499
tp1526
a(I499
I410
tp1527
a(I410
I407
tp1528
a(I407
I496
tp1529
a(I496
I498
tp1530
aa(lp1531
(I196
I1511
tp1532
a(I1511
I1510
tp1533
a(I1510
I182
tp1534
a(I182
I184
tp1535
a(I184
I196
tp1536
aa(lp1537
(I272
I517
tp1538
a(I517
I519
tp1539
a(I519
I341
tp1540
a(I341
I273
tp1541
a(I273
I272
tp1542
aa(lp1543
(I275
I279
tp1544
a(I279
I283
tp1545
a(I283
I252
tp1546
a(I252
I251
tp1547
a(I251
I275
tp1548
aa(lp1549
(I489
I482
tp1550
a(I482
I479
tp1551
a(I479
I488
tp1552
a(I488
I490
tp1553
a(I490
I489
tp1554
aa(lp1555
(I1049
I1048
tp1556
a(I1048
I825
tp1557
a(I825
I828
tp1558
a(I828
I1050
tp1559
a(I1050
I1049
tp1560
aa(lp1561
(I57
I60
tp1562
a(I60
I81
tp1563
a(I81
I79
tp1564
a(I79
I104
tp1565
a(I104
I57
tp1566
aa(lp1567
(I440
I436
tp1568
a(I436
I385
tp1569
a(I385
I384
tp1570
a(I384
I439
tp1571
a(I439
I440
tp1572
aa(lp1573
(I523
I521
tp1574
a(I521
I512
tp1575
a(I512
I514
tp1576
a(I514
I525
tp1577
a(I525
I523
tp1578
aa(lp1579
(I1063
I1081
tp1580
a(I1081
I1088
tp1581
a(I1088
I1092
tp1582
a(I1092
I1066
tp1583
a(I1066
I1063
tp1584
aa(lp1585
(I950
I968
tp1586
a(I968
I972
tp1587
a(I972
I976
tp1588
a(I976
I952
tp1589
a(I952
I950
tp1590
aa(lp1591
(I220
I217
tp1592
a(I217
I218
tp1593
a(I218
I209
tp1594
a(I209
I208
tp1595
a(I208
I220
tp1596
aa(lp1597
(I1435
I1434
tp1598
a(I1434
I1425
tp1599
a(I1425
I1424
tp1600
a(I1424
I1431
tp1601
a(I1431
I1435
tp1602
aa(lp1603
(I1189
I1191
tp1604
a(I1191
I1147
tp1605
a(I1147
I1146
tp1606
a(I1146
I1151
tp1607
a(I1151
I1189
tp1608
aa(lp1609
(I802
I803
tp1610
a(I803
I1389
tp1611
a(I1389
I1390
tp1612
a(I1390
I1321
tp1613
a(I1321
I802
tp1614
aa(lp1615
(I759
I760
tp1616
a(I760
I748
tp1617
a(I748
I749
tp1618
a(I749
I761
tp1619
a(I761
I759
tp1620
aa(lp1621
(I850
I857
tp1622
a(I857
I856
tp1623
a(I856
I852
tp1624
a(I852
I848
tp1625
a(I848
I850
tp1626
aa(lp1627
(I318
I310
tp1628
a(I310
I309
tp1629
a(I309
I315
tp1630
a(I315
I319
tp1631
a(I319
I318
tp1632
aa(lp1633
(I1145
I1104
tp1634
a(I1104
I1099
tp1635
a(I1099
I1098
tp1636
a(I1098
I1144
tp1637
a(I1144
I1145
tp1638
aa(lp1639
(I726
I735
tp1640
a(I735
I732
tp1641
a(I732
I724
tp1642
a(I724
I722
tp1643
a(I722
I726
tp1644
aa(lp1645
(I656
I658
tp1646
a(I658
I661
tp1647
a(I661
I662
tp1648
a(I662
I660
tp1649
a(I660
I656
tp1650
aa(lp1651
(I1382
I1373
tp1652
a(I1373
I1376
tp1653
a(I1376
I1384
tp1654
a(I1384
I1385
tp1655
a(I1385
I1382
tp1656
aa(lp1657
(I1586
I1587
tp1658
a(I1587
I21
tp1659
a(I21
I17
tp1660
a(I17
I18
tp1661
a(I18
I1586
tp1662
aa(lp1663
(I406
I487
tp1664
a(I487
I486
tp1665
a(I486
I478
tp1666
a(I478
I405
tp1667
a(I405
I406
tp1668
aa(lp1669
(I1487
I1484
tp1670
a(I1484
I239
tp1671
a(I239
I242
tp1672
a(I242
I1502
tp1673
a(I1502
I1487
tp1674
aa(lp1675
(I448
I386
tp1676
a(I386
I382
tp1677
a(I382
I433
tp1678
a(I433
I442
tp1679
a(I442
I448
tp1680
aa(lp1681
(I492
I494
tp1682
a(I494
I483
tp1683
a(I483
I482
tp1684
a(I482
I489
tp1685
a(I489
I492
tp1686
aa(lp1687
(I644
I645
tp1688
a(I645
I649
tp1689
a(I649
I648
tp1690
a(I648
I647
tp1691
a(I647
I644
tp1692
aa(lp1693
(I286
I277
tp1694
a(I277
I278
tp1695
a(I278
I300
tp1696
a(I300
I292
tp1697
a(I292
I286
tp1698
aa(lp1699
(I1348
I1347
tp1700
a(I1347
I1346
tp1701
a(I1346
I1339
tp1702
a(I1339
I1343
tp1703
a(I1343
I1348
tp1704
aa(lp1705
(I71
I72
tp1706
a(I72
I68
tp1707
a(I68
I67
tp1708
a(I67
I70
tp1709
a(I70
I71
tp1710
aa(lp1711
(I1359
I1360
tp1712
a(I1360
I1379
tp1713
a(I1379
I1367
tp1714
a(I1367
I1368
tp1715
a(I1368
I1359
tp1716
aa(lp1717
(I903
I917
tp1718
a(I917
I895
tp1719
a(I895
I896
tp1720
a(I896
I906
tp1721
a(I906
I903
tp1722
aa(lp1723
(I1416
I1417
tp1724
a(I1417
I1418
tp1725
a(I1418
I1395
tp1726
a(I1395
I1394
tp1727
a(I1394
I1416
tp1728
aa(lp1729
(I554
I541
tp1730
a(I541
I1433
tp1731
a(I1433
I1427
tp1732
a(I1427
I1428
tp1733
a(I1428
I554
tp1734
aa(lp1735
(I641
I642
tp1736
a(I642
I769
tp1737
a(I769
I766
tp1738
a(I766
I640
tp1739
a(I640
I641
tp1740
aa(lp1741
(I276
I274
tp1742
a(I274
I282
tp1743
a(I282
I289
tp1744
a(I289
I287
tp1745
a(I287
I276
tp1746
aa(lp1747
(I709
I649
tp1748
a(I649
I645
tp1749
a(I645
I643
tp1750
a(I643
I720
tp1751
a(I720
I709
tp1752
aa(lp1753
(I472
I471
tp1754
a(I471
I470
tp1755
a(I470
I463
tp1756
a(I463
I466
tp1757
a(I466
I472
tp1758
aa(lp1759
(I1530
I1519
tp1760
a(I1519
I765
tp1761
a(I765
I773
tp1762
a(I773
I772
tp1763
a(I772
I1530
tp1764
aa(lp1765
(I1595
I1588
tp1766
a(I1588
I1592
tp1767
a(I1592
I5
tp1768
a(I5
I4
tp1769
a(I4
I1595
tp1770
aa(lp1771
(I1082
I1059
tp1772
a(I1059
I1060
tp1773
a(I1060
I1078
tp1774
a(I1078
I1077
tp1775
a(I1077
I1082
tp1776
aa(lp1777
(I643
I645
tp1778
a(I645
I644
tp1779
a(I644
I113
tp1780
a(I113
I2
tp1781
a(I2
I643
tp1782
aa(lp1783
(I1468
I1477
tp1784
a(I1477
I1476
tp1785
a(I1476
I1475
tp1786
a(I1475
I1466
tp1787
a(I1466
I1468
tp1788
aa(lp1789
(I1010
I1005
tp1790
a(I1005
I1004
tp1791
a(I1004
I1020
tp1792
a(I1020
I1021
tp1793
a(I1021
I1010
tp1794
aa(lp1795
(I854
I858
tp1796
a(I858
I866
tp1797
a(I866
I844
tp1798
a(I844
I843
tp1799
a(I843
I854
tp1800
aa(lp1801
(I296
I316
tp1802
a(I316
I317
tp1803
a(I317
I321
tp1804
a(I321
I297
tp1805
a(I297
I296
tp1806
aa(lp1807
(I615
I611
tp1808
a(I611
I610
tp1809
a(I610
I616
tp1810
a(I616
I619
tp1811
a(I619
I615
tp1812
aa(lp1813
(I446
I335
tp1814
a(I335
I648
tp1815
a(I648
I649
tp1816
a(I649
I709
tp1817
a(I709
I446
tp1818
aa(lp1819
(I420
I419
tp1820
a(I419
I415
tp1821
a(I415
I416
tp1822
a(I416
I421
tp1823
a(I421
I420
tp1824
aa(lp1825
(I1378
I1377
tp1826
a(I1377
I1369
tp1827
a(I1369
I1161
tp1828
a(I1161
I1162
tp1829
a(I1162
I1378
tp1830
aa(lp1831
(I1065
I1058
tp1832
a(I1058
I1062
tp1833
a(I1062
I1082
tp1834
a(I1082
I1077
tp1835
a(I1077
I1065
tp1836
aa(lp1837
(I263
I264
tp1838
a(I264
I312
tp1839
a(I312
I311
tp1840
a(I311
I303
tp1841
a(I303
I263
tp1842
aa(lp1843
(I31
I30
tp1844
a(I30
I73
tp1845
a(I73
I74
tp1846
a(I74
I87
tp1847
a(I87
I31
tp1848
aa(lp1849
(I1538
I1533
tp1850
a(I1533
I1534
tp1851
a(I1534
I1522
tp1852
a(I1522
I1521
tp1853
a(I1521
I1538
tp1854
aa(lp1855
(I826
I1047
tp1856
a(I1047
I703
tp1857
a(I703
I698
tp1858
a(I698
I824
tp1859
a(I824
I826
tp1860
aa(lp1861
(I168
I170
tp1862
a(I170
I177
tp1863
a(I177
I176
tp1864
a(I176
I175
tp1865
a(I175
I168
tp1866
aa(lp1867
(I572
I581
tp1868
a(I581
I582
tp1869
a(I582
I561
tp1870
a(I561
I560
tp1871
a(I560
I572
tp1872
aa(lp1873
(I1288
I1287
tp1874
a(I1287
I1283
tp1875
a(I1283
I1215
tp1876
a(I1215
I1216
tp1877
a(I1216
I1288
tp1878
aa(lp1879
(I372
I414
tp1880
a(I414
I500
tp1881
a(I500
I501
tp1882
a(I501
I373
tp1883
a(I373
I372
tp1884
aa(lp1885
(I1180
I1181
tp1886
a(I1181
I1150
tp1887
a(I1150
I1149
tp1888
a(I1149
I1168
tp1889
a(I1168
I1180
tp1890
aa(lp1891
(I306
I305
tp1892
a(I305
I318
tp1893
a(I318
I319
tp1894
a(I319
I320
tp1895
a(I320
I306
tp1896
aa(lp1897
(I522
I523
tp1898
a(I523
I525
tp1899
a(I525
I507
tp1900
a(I507
I506
tp1901
a(I506
I522
tp1902
aa(lp1903
(I1456
I538
tp1904
a(I538
I536
tp1905
a(I536
I1465
tp1906
a(I1465
I1455
tp1907
a(I1455
I1456
tp1908
aa(lp1909
(I337
I332
tp1910
a(I332
I350
tp1911
a(I350
I352
tp1912
a(I352
I351
tp1913
a(I351
I337
tp1914
aa(lp1915
(I957
I959
tp1916
a(I959
I947
tp1917
a(I947
I945
tp1918
a(I945
I960
tp1919
a(I960
I957
tp1920
aa(lp1921
(I89
I90
tp1922
a(I90
I92
tp1923
a(I92
I50
tp1924
a(I50
I51
tp1925
a(I51
I89
tp1926
aa(lp1927
(I1427
I1433
tp1928
a(I1433
I1432
tp1929
a(I1432
I1431
tp1930
a(I1431
I1424
tp1931
a(I1424
I1427
tp1932
aa(lp1933
(I101
I1570
tp1934
a(I1570
I1572
tp1935
a(I1572
I178
tp1936
a(I178
I103
tp1937
a(I103
I101
tp1938
aa(lp1939
(I777
I776
tp1940
a(I776
I637
tp1941
a(I637
I639
tp1942
a(I639
I638
tp1943
a(I638
I777
tp1944
aa(lp1945
(I334
I337
tp1946
a(I337
I351
tp1947
a(I351
I345
tp1948
a(I345
I349
tp1949
a(I349
I334
tp1950
aa(lp1951
(I284
I245
tp1952
a(I245
I243
tp1953
a(I243
I252
tp1954
a(I252
I283
tp1955
a(I283
I284
tp1956
aa(lp1957
(I373
I501
tp1958
a(I501
I268
tp1959
a(I268
I270
tp1960
a(I270
I374
tp1961
a(I374
I373
tp1962
aa(lp1963
(I670
I673
tp1964
a(I673
I674
tp1965
a(I674
I671
tp1966
a(I671
I669
tp1967
a(I669
I670
tp1968
aa(lp1969
(I1122
I1536
tp1970
a(I1536
I1539
tp1971
a(I1539
I1540
tp1972
a(I1540
I1123
tp1973
a(I1123
I1122
tp1974
aa(lp1975
(I993
I996
tp1976
a(I996
I995
tp1977
a(I995
I988
tp1978
a(I988
I987
tp1979
a(I987
I993
tp1980
aa(lp1981
(I29
I68
tp1982
a(I68
I72
tp1983
a(I72
I73
tp1984
a(I73
I30
tp1985
a(I30
I29
tp1986
aa(lp1987
(I16
I13
tp1988
a(I13
I15
tp1989
a(I15
I53
tp1990
a(I53
I20
tp1991
a(I20
I16
tp1992
aa(lp1993
(I387
I388
tp1994
a(I388
I449
tp1995
a(I449
I441
tp1996
a(I441
I443
tp1997
a(I443
I387
tp1998
aa(lp1999
(I1378
I1160
tp2000
a(I1160
I1157
tp2001
a(I1157
I1338
tp2002
a(I1338
I1377
tp2003
a(I1377
I1378
tp2004
aa(lp2005
(I1377
I1338
tp2006
a(I1338
I1337
tp2007
a(I1337
I1365
tp2008
a(I1365
I1369
tp2009
a(I1369
I1377
tp2010
aa(lp2011
(I616
I617
tp2012
a(I617
I603
tp2013
a(I603
I601
tp2014
a(I601
I619
tp2015
a(I619
I616
tp2016
aa(lp2017
(I487
I488
tp2018
a(I488
I479
tp2019
a(I479
I481
tp2020
a(I481
I486
tp2021
a(I486
I487
tp2022
aa(lp2023
(I742
I764
tp2024
a(I764
I1263
tp2025
a(I1263
I1374
tp2026
a(I1374
I731
tp2027
a(I731
I742
tp2028
aa(lp2029
(I1277
I1270
tp2030
a(I1270
I1269
tp2031
a(I1269
I1281
tp2032
a(I1281
I1278
tp2033
a(I1278
I1277
tp2034
aa(lp2035
(I1227
I1178
tp2036
a(I1178
I1154
tp2037
a(I1154
I1155
tp2038
a(I1155
I1226
tp2039
a(I1226
I1227
tp2040
aa(lp2041
(I59
I104
tp2042
a(I104
I79
tp2043
a(I79
I66
tp2044
a(I66
I56
tp2045
a(I56
I59
tp2046
aa(lp2047
(I465
I477
tp2048
a(I477
I474
tp2049
a(I474
I472
tp2050
a(I472
I466
tp2051
a(I466
I465
tp2052
aa(lp2053
(I1214
I1284
tp2054
a(I1284
I1293
tp2055
a(I1293
I1296
tp2056
a(I1296
I1217
tp2057
a(I1217
I1214
tp2058
aa(lp2059
(I457
I456
tp2060
a(I456
I464
tp2061
a(I464
I470
tp2062
a(I470
I471
tp2063
a(I471
I457
tp2064
aa(lp2065
(I149
I118
tp2066
a(I118
I121
tp2067
a(I121
I163
tp2068
a(I163
I161
tp2069
a(I161
I149
tp2070
aa(lp2071
(I142
I143
tp2072
a(I143
I131
tp2073
a(I131
I129
tp2074
a(I129
I138
tp2075
a(I138
I142
tp2076
aa(lp2077
(I1594
I1583
tp2078
a(I1583
I1582
tp2079
a(I1582
I176
tp2080
a(I176
I177
tp2081
a(I177
I1594
tp2082
aa(lp2083
(I181
I182
tp2084
a(I182
I1510
tp2085
a(I1510
I1509
tp2086
a(I1509
I186
tp2087
a(I186
I181
tp2088
aa(lp2089
(I999
I998
tp2090
a(I998
I994
tp2091
a(I994
I935
tp2092
a(I935
I936
tp2093
a(I936
I999
tp2094
aa(lp2095
(I699
I696
tp2096
a(I696
I695
tp2097
a(I695
I840
tp2098
a(I840
I841
tp2099
a(I841
I699
tp2100
aa(lp2101
(I991
I992
tp2102
a(I992
I989
tp2103
a(I989
I988
tp2104
a(I988
I995
tp2105
a(I995
I991
tp2106
aa(lp2107
(I1090
I1084
tp2108
a(I1084
I1085
tp2109
a(I1085
I1145
tp2110
a(I1145
I1144
tp2111
a(I1144
I1090
tp2112
aa(lp2113
(I673
I670
tp2114
a(I670
I569
tp2115
a(I569
I580
tp2116
a(I580
I676
tp2117
a(I676
I673
tp2118
aa(lp2119
(I1092
I1088
tp2120
a(I1088
I1089
tp2121
a(I1089
I1094
tp2122
a(I1094
I1093
tp2123
a(I1093
I1092
tp2124
aa(lp2125
(I1399
I1400
tp2126
a(I1400
I1418
tp2127
a(I1418
I1417
tp2128
a(I1417
I1415
tp2129
a(I1415
I1399
tp2130
aa(lp2131
(I1529
I1531
tp2132
a(I1531
I1489
tp2133
a(I1489
I1488
tp2134
a(I1488
I1498
tp2135
a(I1498
I1529
tp2136
aa(lp2137
(I578
I577
tp2138
a(I577
I660
tp2139
a(I660
I662
tp2140
a(I662
I663
tp2141
a(I663
I578
tp2142
aa(lp2143
(I1358
I1357
tp2144
a(I1357
I1366
tp2145
a(I1366
I1367
tp2146
a(I1367
I1379
tp2147
a(I1379
I1358
tp2148
aa(lp2149
(I1302
I1303
tp2150
a(I1303
I1304
tp2151
a(I1304
I1221
tp2152
a(I1221
I1220
tp2153
a(I1220
I1302
tp2154
aa(lp2155
(I953
I964
tp2156
a(I964
I808
tp2157
a(I808
I797
tp2158
a(I797
I831
tp2159
a(I831
I953
tp2160
aa(lp2161
(I862
I1025
tp2162
a(I1025
I1035
tp2163
a(I1035
I1038
tp2164
a(I1038
I863
tp2165
a(I863
I862
tp2166
aa(lp2167
(I1
I708
tp2168
a(I708
I930
tp2169
a(I930
I819
tp2170
a(I819
I0
tp2171
a(I0
I1
tp2172
aa(lp2173
(I655
I659
tp2174
a(I659
I653
tp2175
a(I653
I652
tp2176
a(I652
I651
tp2177
a(I651
I655
tp2178
aa(lp2179
(I105
I111
tp2180
a(I111
I122
tp2181
a(I122
I127
tp2182
a(I127
I106
tp2183
a(I106
I105
tp2184
aa(lp2185
(I1255
I1256
tp2186
a(I1256
I1257
tp2187
a(I1257
I1244
tp2188
a(I1244
I1243
tp2189
a(I1243
I1255
tp2190
aa(lp2191
(I323
I329
tp2192
a(I329
I234
tp2193
a(I234
I231
tp2194
a(I231
I314
tp2195
a(I314
I323
tp2196
aa(lp2197
(I1363
I1275
tp2198
a(I1275
I1241
tp2199
a(I1241
I1308
tp2200
a(I1308
I1330
tp2201
a(I1330
I1363
tp2202
aa(lp2203
(I515
I504
tp2204
a(I504
I503
tp2205
a(I503
I505
tp2206
a(I505
I510
tp2207
a(I510
I515
tp2208
aa(lp2209
(I1581
I1580
tp2210
a(I1580
I17
tp2211
a(I17
I21
tp2212
a(I21
I1584
tp2213
a(I1584
I1581
tp2214
aa(lp2215
(I1036
I1037
tp2216
a(I1037
I1035
tp2217
a(I1035
I1025
tp2218
a(I1025
I1024
tp2219
a(I1024
I1032
tp2220
a(I1032
I1036
tp2221
aa(lp2222
(I631
I563
tp2223
a(I563
I559
tp2224
a(I559
I555
tp2225
a(I555
I625
tp2226
a(I625
I630
tp2227
a(I630
I631
tp2228
aa(lp2229
(I324
I313
tp2230
a(I313
I713
tp2231
a(I713
I717
tp2232
a(I717
I719
tp2233
a(I719
I718
tp2234
a(I718
I324
tp2235
aa(lp2236
(I22
I1568
tp2237
a(I1568
I1567
tp2238
a(I1567
I1586
tp2239
a(I1586
I18
tp2240
a(I18
I19
tp2241
a(I19
I22
tp2242
aa(lp2243
(I375
I371
tp2244
a(I371
I340
tp2245
a(I340
I344
tp2246
a(I344
I377
tp2247
a(I377
I376
tp2248
a(I376
I375
tp2249
aa(lp2250
(I1121
I1532
tp2251
a(I1532
I1535
tp2252
a(I1535
I1537
tp2253
a(I1537
I1536
tp2254
a(I1536
I1122
tp2255
a(I1122
I1121
tp2256
aa(lp2257
(I859
I857
tp2258
a(I857
I850
tp2259
a(I850
I849
tp2260
a(I849
I867
tp2261
a(I867
I873
tp2262
a(I873
I859
tp2263
aa(lp2264
(I1131
I1143
tp2265
a(I1143
I1142
tp2266
a(I1142
I1137
tp2267
a(I1137
I1138
tp2268
a(I1138
I1127
tp2269
a(I1127
I1131
tp2270
aa(lp2271
(I529
I537
tp2272
a(I537
I536
tp2273
a(I536
I538
tp2274
a(I538
I539
tp2275
a(I539
I528
tp2276
a(I528
I529
tp2277
aa(lp2278
(I78
I86
tp2279
a(I86
I98
tp2280
a(I98
I99
tp2281
a(I99
I46
tp2282
a(I46
I43
tp2283
a(I43
I78
tp2284
aa(lp2285
(I1076
I1087
tp2286
a(I1087
I1085
tp2287
a(I1085
I1084
tp2288
a(I1084
I1083
tp2289
a(I1083
I1072
tp2290
a(I1072
I1076
tp2291
aa(lp2292
(I1213
I1116
tp2293
a(I1116
I1115
tp2294
a(I1115
I1245
tp2295
a(I1245
I1238
tp2296
a(I1238
I1212
tp2297
a(I1212
I1213
tp2298
aa(lp2299
(I955
I941
tp2300
a(I941
I943
tp2301
a(I943
I959
tp2302
a(I959
I957
tp2303
a(I957
I958
tp2304
a(I958
I955
tp2305
aa(lp2306
(I417
I416
tp2307
a(I416
I415
tp2308
a(I415
I378
tp2309
a(I378
I393
tp2310
a(I393
I418
tp2311
a(I418
I417
tp2312
aa(lp2313
(I718
I719
tp2314
a(I719
I716
tp2315
a(I716
I424
tp2316
a(I424
I435
tp2317
a(I435
I721
tp2318
a(I721
I718
tp2319
aa(lp2320
(I813
I687
tp2321
a(I687
I688
tp2322
a(I688
I812
tp2323
a(I812
I799
tp2324
a(I799
I800
tp2325
a(I800
I813
tp2326
aa(lp2327
(I229
I290
tp2328
a(I290
I248
tp2329
a(I248
I244
tp2330
a(I244
I285
tp2331
a(I285
I228
tp2332
a(I228
I229
tp2333
aa(lp2334
(I263
I303
tp2335
a(I303
I301
tp2336
a(I301
I300
tp2337
a(I300
I278
tp2338
a(I278
I261
tp2339
a(I261
I263
tp2340
aa(lp2341
(I1241
I1252
tp2342
a(I1252
I1197
tp2343
a(I1197
I1186
tp2344
a(I1186
I1297
tp2345
a(I1297
I1308
tp2346
a(I1308
I1241
tp2347
aa(lp2348
(I140
I134
tp2349
a(I134
I126
tp2350
a(I126
I123
tp2351
a(I123
I130
tp2352
a(I130
I139
tp2353
a(I139
I140
tp2354
aa(lp2355
(I1049
I1070
tp2356
a(I1070
I1069
tp2357
a(I1069
I1068
tp2358
a(I1068
I1051
tp2359
a(I1051
I1048
tp2360
a(I1048
I1049
tp2361
aa(lp2362
(I1001
I1002
tp2363
a(I1002
I1000
tp2364
a(I1000
I999
tp2365
a(I999
I936
tp2366
a(I936
I939
tp2367
a(I939
I1001
tp2368
aa(lp2369
(I1520
I1529
tp2370
a(I1529
I1498
tp2371
a(I1498
I1496
tp2372
a(I1496
I1528
tp2373
a(I1528
I1516
tp2374
a(I1516
I1520
tp2375
aa(lp2376
(I383
I385
tp2377
a(I385
I436
tp2378
a(I436
I437
tp2379
a(I437
I425
tp2380
a(I425
I423
tp2381
a(I423
I383
tp2382
aa(lp2383
(I313
I302
tp2384
a(I302
I710
tp2385
a(I710
I715
tp2386
a(I715
I714
tp2387
a(I714
I713
tp2388
a(I713
I313
tp2389
aa(lp2390
(I454
I484
tp2391
a(I484
I494
tp2392
a(I494
I492
tp2393
a(I492
I493
tp2394
a(I493
I455
tp2395
a(I455
I454
tp2396
aa(lp2397
(I1312
I1307
tp2398
a(I1307
I1309
tp2399
a(I1309
I1173
tp2400
a(I1173
I1174
tp2401
a(I1174
I1311
tp2402
a(I1311
I1312
tp2403
aa(lp2404
(I124
I128
tp2405
a(I128
I107
tp2406
a(I107
I108
tp2407
a(I108
I127
tp2408
a(I127
I122
tp2409
a(I122
I124
tp2410
aa(lp2411
(I19
I20
tp2412
a(I20
I53
tp2413
a(I53
I54
tp2414
a(I54
I23
tp2415
a(I23
I22
tp2416
a(I22
I19
tp2417
aa(lp2418
(I826
I825
tp2419
a(I825
I1048
tp2420
a(I1048
I1051
tp2421
a(I1051
I1052
tp2422
a(I1052
I1047
tp2423
a(I1047
I826
tp2424
aa(lp2425
(I612
I608
tp2426
a(I608
I364
tp2427
a(I364
I365
tp2428
a(I365
I606
tp2429
a(I606
I600
tp2430
a(I600
I612
tp2431
aa(lp2432
(I10
I55
tp2433
a(I55
I54
tp2434
a(I54
I53
tp2435
a(I53
I15
tp2436
a(I15
I9
tp2437
a(I9
I10
tp2438
aa(lp2439
(I110
I111
tp2440
a(I111
I105
tp2441
a(I105
I62
tp2442
a(I62
I61
tp2443
a(I61
I109
tp2444
a(I109
I110
tp2445
aa(lp2446
(I29
I27
tp2447
a(I27
I26
tp2448
a(I26
I64
tp2449
a(I64
I67
tp2450
a(I67
I68
tp2451
a(I68
I29
tp2452
aa(lp2453
(I731
I1152
tp2454
a(I1152
I1041
tp2455
a(I1041
I675
tp2456
a(I675
I753
tp2457
a(I753
I742
tp2458
a(I742
I731
tp2459
aa(lp2460
(I399
I450
tp2461
a(I450
I390
tp2462
a(I390
I389
tp2463
a(I389
I444
tp2464
a(I444
I397
tp2465
a(I397
I399
tp2466
aa(lp2467
(I1016
I1017
tp2468
a(I1017
I1001
tp2469
a(I1001
I939
tp2470
a(I939
I938
tp2471
a(I938
I1013
tp2472
a(I1013
I1016
tp2473
aa(lp2474
(I316
I315
tp2475
a(I315
I309
tp2476
a(I309
I295
tp2477
a(I295
I298
tp2478
a(I298
I317
tp2479
a(I317
I316
tp2480
aa(lp2481
(I4
I109
tp2482
a(I109
I61
tp2483
a(I61
I55
tp2484
a(I55
I10
tp2485
a(I10
I1595
tp2486
a(I1595
I4
tp2487
aa(lp2488
(I714
I402
tp2489
a(I402
I424
tp2490
a(I424
I716
tp2491
a(I716
I717
tp2492
a(I717
I713
tp2493
a(I713
I714
tp2494
aa(lp2495
(I708
I1
tp2496
a(I1
I775
tp2497
a(I775
I797
tp2498
a(I797
I808
tp2499
a(I808
I820
tp2500
a(I820
I708
tp2501
aa(lp2502
(I1031
I1045
tp2503
a(I1045
I881
tp2504
a(I881
I872
tp2505
a(I872
I871
tp2506
a(I871
I1029
tp2507
a(I1029
I1031
tp2508
aa(lp2509
(I1436
I1434
tp2510
a(I1434
I1435
tp2511
a(I1435
I1438
tp2512
a(I1438
I1439
tp2513
a(I1439
I1437
tp2514
a(I1437
I1436
tp2515
aa(lp2516
(I97
I96
tp2517
a(I96
I77
tp2518
a(I77
I78
tp2519
a(I78
I43
tp2520
a(I43
I45
tp2521
a(I45
I97
tp2522
aa(lp2523
(I93
I94
tp2524
a(I94
I95
tp2525
a(I95
I40
tp2526
a(I40
I38
tp2527
a(I38
I52
tp2528
a(I52
I93
tp2529
aa(lp2530
(I1317
I1325
tp2531
a(I1325
I1323
tp2532
a(I1323
I1324
tp2533
a(I1324
I816
tp2534
a(I816
I815
tp2535
a(I815
I1317
tp2536
aa(lp2537
(I934
I935
tp2538
a(I935
I994
tp2539
a(I994
I993
tp2540
a(I993
I987
tp2541
a(I987
I985
tp2542
a(I985
I934
tp2543
aa(lp2544
(I1590
I1591
tp2545
a(I1591
I7
tp2546
a(I7
I8
tp2547
a(I8
I11
tp2548
a(I11
I12
tp2549
a(I12
I1590
tp2550
aa(lp2551
(I1423
I1422
tp2552
a(I1422
I1426
tp2553
a(I1426
I1436
tp2554
a(I1436
I1437
tp2555
a(I1437
I1440
tp2556
a(I1440
I1423
tp2557
aa(lp2558
(I332
I333
tp2559
a(I333
I327
tp2560
a(I327
I326
tp2561
a(I326
I348
tp2562
a(I348
I350
tp2563
a(I350
I332
tp2564
aa(lp2565
(I1263
I764
tp2566
a(I764
I786
tp2567
a(I786
I775
tp2568
a(I775
I1
tp2569
a(I1
I0
tp2570
a(I0
I1263
tp2571
aa(lp2572
(I758
I640
tp2573
a(I640
I766
tp2574
a(I766
I767
tp2575
a(I767
I762
tp2576
a(I762
I757
tp2577
a(I757
I758
tp2578
aa(lp2579
(I1294
I1295
tp2580
a(I1295
I1289
tp2581
a(I1289
I1285
tp2582
a(I1285
I1196
tp2583
a(I1196
I1198
tp2584
a(I1198
I1294
tp2585
aa(lp2586
(I384
I381
tp2587
a(I381
I425
tp2588
a(I425
I437
tp2589
a(I437
I438
tp2590
a(I438
I439
tp2591
a(I439
I384
tp2592
aa(lp2593
(I133
I116
tp2594
a(I116
I117
tp2595
a(I117
I144
tp2596
a(I144
I148
tp2597
a(I148
I150
tp2598
a(I150
I133
tp2599
aa(lp2600
(I720
I643
tp2601
a(I643
I2
tp2602
a(I2
I1485
tp2603
a(I1485
I629
tp2604
a(I629
I697
tp2605
a(I697
I720
tp2606
aa(lp2607
(I1282
I1281
tp2608
a(I1281
I1269
tp2609
a(I1269
I1267
tp2610
a(I1267
I1274
tp2611
a(I1274
I1280
tp2612
a(I1280
I1282
tp2613
aa(lp2614
(I1563
I1463
tp2615
a(I1463
I1474
tp2616
a(I1474
I1585
tp2617
a(I1585
I3
tp2618
a(I3
I1574
tp2619
a(I1574
I1563
tp2620
aa(lp2621
(I611
I609
tp2622
a(I609
I607
tp2623
a(I607
I608
tp2624
a(I608
I612
tp2625
a(I612
I610
tp2626
a(I610
I611
tp2627
aa(lp2628
(I969
I970
tp2629
a(I970
I965
tp2630
a(I965
I966
tp2631
a(I966
I977
tp2632
a(I977
I973
tp2633
a(I973
I969
tp2634
aa(lp2635
(I281
I279
tp2636
a(I279
I275
tp2637
a(I275
I276
tp2638
a(I276
I287
tp2639
a(I287
I288
tp2640
a(I288
I281
tp2641
aa(lp2642
(I1419
I1430
tp2643
a(I1430
I1441
tp2644
a(I1441
I1452
tp2645
a(I1452
I1086
tp2646
a(I1086
I1119
tp2647
a(I1119
I1419
tp2648
aa(lp2649
(I1319
I1286
tp2650
a(I1286
I1275
tp2651
a(I1275
I1363
tp2652
a(I1363
I1375
tp2653
a(I1375
I1386
tp2654
a(I1386
I1319
tp2655
aa(lp2656
(I1276
I1274
tp2657
a(I1274
I1267
tp2658
a(I1267
I1261
tp2659
a(I1261
I1260
tp2660
a(I1260
I1273
tp2661
a(I1273
I1276
tp2662
aa(lp2663
(I1183
I1184
tp2664
a(I1184
I1299
tp2665
a(I1299
I1300
tp2666
a(I1300
I1298
tp2667
a(I1298
I1292
tp2668
a(I1292
I1183
tp2669
aa(lp2670
(I1243
I1242
tp2671
a(I1242
I1247
tp2672
a(I1247
I1248
tp2673
a(I1248
I1254
tp2674
a(I1254
I1255
tp2675
a(I1255
I1243
tp2676
aa(lp2677
(I1494
I1505
tp2678
a(I1505
I1514
tp2679
a(I1514
I1515
tp2680
a(I1515
I1513
tp2681
a(I1513
I1495
tp2682
a(I1495
I1494
tp2683
aa(lp2684
(I667
I524
tp2685
a(I524
I513
tp2686
a(I513
I602
tp2687
a(I602
I657
tp2688
a(I657
I665
tp2689
a(I665
I667
tp2690
aa(lp2691
(I945
I946
tp2692
a(I946
I956
tp2693
a(I956
I955
tp2694
a(I955
I958
tp2695
a(I958
I960
tp2696
a(I960
I945
tp2697
aa(lp2698
(I1101
I1100
tp2699
a(I1100
I1102
tp2700
a(I1102
I1111
tp2701
a(I1111
I370
tp2702
a(I370
I368
tp2703
a(I368
I1101
tp2704
aa(lp2705
(I1325
I829
tp2706
a(I829
I817
tp2707
a(I817
I818
tp2708
a(I818
I1326
tp2709
a(I1326
I1323
tp2710
a(I1323
I1325
tp2711
aa(lp2712
(I358
I102
tp2713
a(I102
I69
tp2714
a(I69
I58
tp2715
a(I58
I280
tp2716
a(I280
I347
tp2717
a(I347
I358
tp2718
aa(lp2719
(I1247
I1242
tp2720
a(I1242
I1210
tp2721
a(I1210
I1211
tp2722
a(I1211
I1229
tp2723
a(I1229
I1231
tp2724
a(I1231
I1247
tp2725
aa(lp2726
(I1036
I1032
tp2727
a(I1032
I1033
tp2728
a(I1033
I1044
tp2729
a(I1044
I1039
tp2730
a(I1039
I1040
tp2731
a(I1040
I1036
tp2732
aa(lp2733
(I15
I13
tp2734
a(I13
I12
tp2735
a(I12
I11
tp2736
a(I11
I6
tp2737
a(I6
I9
tp2738
a(I9
I15
tp2739
aa(lp2740
(I1034
I1033
tp2741
a(I1033
I1032
tp2742
a(I1032
I1024
tp2743
a(I1024
I1023
tp2744
a(I1023
I1027
tp2745
a(I1027
I1034
tp2746
aa(lp2747
(I1461
I532
tp2748
a(I532
I526
tp2749
a(I526
I254
tp2750
a(I254
I1473
tp2751
a(I1473
I1459
tp2752
a(I1459
I1461
tp2753
aa(lp2754
(I1493
I1492
tp2755
a(I1492
I1120
tp2756
a(I1120
I1118
tp2757
a(I1118
I1316
tp2758
a(I1316
I1491
tp2759
a(I1491
I1493
tp2760
aa(lp2761
(I1123
I1540
tp2762
a(I1540
I1506
tp2763
a(I1506
I1507
tp2764
a(I1507
I1548
tp2765
a(I1548
I1124
tp2766
a(I1124
I1123
tp2767
aa(lp2768
(I342
I520
tp2769
a(I520
I395
tp2770
a(I395
I376
tp2771
a(I376
I377
tp2772
a(I377
I343
tp2773
a(I343
I342
tp2774
aa(lp2775
(I1579
I1578
tp2776
a(I1578
I1590
tp2777
a(I1590
I12
tp2778
a(I12
I13
tp2779
a(I13
I16
tp2780
a(I16
I1579
tp2781
aa(lp2782
(I631
I632
tp2783
a(I632
I623
tp2784
a(I623
I626
tp2785
a(I626
I564
tp2786
a(I564
I563
tp2787
a(I563
I631
tp2788
aa(lp2789
(I1542
I1559
tp2790
a(I1559
I1560
tp2791
a(I1560
I1525
tp2792
a(I1525
I1515
tp2793
a(I1515
I1514
tp2794
a(I1514
I1542
tp2795
aa(lp2796
(I780
I779
tp2797
a(I779
I738
tp2798
a(I738
I1552
tp2799
a(I1552
I1541
tp2800
a(I1541
I774
tp2801
a(I774
I780
tp2802
aa(lp2803
(I497
I409
tp2804
a(I409
I411
tp2805
a(I411
I498
tp2806
a(I498
I496
tp2807
a(I496
I495
tp2808
a(I495
I497
tp2809
aa(lp2810
(I1128
I1138
tp2811
a(I1138
I1137
tp2812
a(I1137
I1139
tp2813
a(I1139
I1136
tp2814
a(I1136
I1126
tp2815
a(I1126
I1128
tp2816
aa(lp2817
(I1371
I1381
tp2818
a(I1381
I1383
tp2819
a(I1383
I1385
tp2820
a(I1385
I1384
tp2821
a(I1384
I1372
tp2822
a(I1372
I1371
tp2823
aa(lp2824
(I569
I670
tp2825
a(I670
I669
tp2826
a(I669
I668
tp2827
a(I668
I635
tp2828
a(I635
I558
tp2829
a(I558
I569
tp2830
aa(lp2831
(I1539
I1536
tp2832
a(I1536
I1537
tp2833
a(I1537
I1538
tp2834
a(I1538
I1521
tp2835
a(I1521
I1524
tp2836
a(I1524
I1539
tp2837
aa(lp2838
(I260
I256
tp2839
a(I256
I259
tp2840
a(I259
I257
tp2841
a(I257
I255
tp2842
a(I255
I250
tp2843
a(I250
I253
tp2844
a(I253
I260
tp2845
aa(lp2846
(I909
I916
tp2847
a(I916
I915
tp2848
a(I915
I914
tp2849
a(I914
I912
tp2850
a(I912
I913
tp2851
a(I913
I902
tp2852
a(I902
I909
tp2853
aa(lp2854
(I1331
I1329
tp2855
a(I1329
I1342
tp2856
a(I1342
I1349
tp2857
a(I1349
I1346
tp2858
a(I1346
I1347
tp2859
a(I1347
I1350
tp2860
a(I1350
I1331
tp2861
aa(lp2862
(I1107
I1203
tp2863
a(I1203
I1209
tp2864
a(I1209
I1211
tp2865
a(I1211
I1210
tp2866
a(I1210
I1113
tp2867
a(I1113
I1109
tp2868
a(I1109
I1107
tp2869
aa(lp2870
(I735
I726
tp2871
a(I726
I725
tp2872
a(I725
I729
tp2873
a(I729
I730
tp2874
a(I730
I734
tp2875
a(I734
I736
tp2876
a(I736
I735
tp2877
aa(lp2878
(I160
I162
tp2879
a(I162
I175
tp2880
a(I175
I176
tp2881
a(I176
I1582
tp2882
a(I1582
I1577
tp2883
a(I1577
I1576
tp2884
a(I1576
I160
tp2885
aa(lp2886
(I875
I864
tp2887
a(I864
I1463
tp2888
a(I1463
I1563
tp2889
a(I1563
I36
tp2890
a(I36
I14
tp2891
a(I14
I25
tp2892
a(I25
I875
tp2893
aa(lp2894
(I1296
I1293
tp2895
a(I1293
I1292
tp2896
a(I1292
I1298
tp2897
a(I1298
I1303
tp2898
a(I1303
I1302
tp2899
a(I1302
I1301
tp2900
a(I1301
I1296
tp2901
aa(lp2902
(I1581
I1584
tp2903
a(I1584
I1587
tp2904
a(I1587
I1586
tp2905
a(I1586
I1567
tp2906
a(I1567
I1566
tp2907
a(I1566
I1575
tp2908
a(I1575
I1581
tp2909
aa(lp2910
(I799
I812
tp2911
a(I812
I683
tp2912
a(I683
I685
tp2913
a(I685
I811
tp2914
a(I811
I794
tp2915
a(I794
I793
tp2916
a(I793
I799
tp2917
aa(lp2918
(I1320
I1318
tp2919
a(I1318
I1388
tp2920
a(I1388
I1394
tp2921
a(I1394
I1395
tp2922
a(I1395
I1396
tp2923
a(I1396
I1334
tp2924
a(I1334
I1320
tp2925
aa(lp2926
(I754
I755
tp2927
a(I755
I747
tp2928
a(I747
I752
tp2929
a(I752
I758
tp2930
a(I758
I757
tp2931
a(I757
I756
tp2932
a(I756
I754
tp2933
aa(lp2934
(I1347
I1348
tp2935
a(I1348
I1354
tp2936
a(I1354
I1355
tp2937
a(I1355
I1356
tp2938
a(I1356
I1351
tp2939
a(I1351
I1350
tp2940
a(I1350
I1347
tp2941
aa(lp2942
(I1022
I1006
tp2943
a(I1006
I1007
tp2944
a(I1007
I1011
tp2945
a(I1011
I916
tp2946
a(I916
I909
tp2947
a(I909
I911
tp2948
a(I911
I1022
tp2949
aa(lp2950
(I1344
I1163
tp2951
a(I1163
I1159
tp2952
a(I1159
I1373
tp2953
a(I1373
I1382
tp2954
a(I1382
I1383
tp2955
a(I1383
I1381
tp2956
a(I1381
I1344
tp2957
aa(lp2958
(I491
I502
tp2959
a(I502
I678
tp2960
a(I678
I679
tp2961
a(I679
I677
tp2962
a(I677
I676
tp2963
a(I676
I580
tp2964
a(I580
I491
tp2965
aa(lp2966
(I990
I992
tp2967
a(I992
I991
tp2968
a(I991
I885
tp2969
a(I885
I887
tp2970
a(I887
I877
tp2971
a(I877
I876
tp2972
a(I876
I990
tp2973
aa(lp2974
(I1453
I1450
tp2975
a(I1450
I1451
tp2976
a(I1451
I1442
tp2977
a(I1442
I1440
tp2978
a(I1440
I1437
tp2979
a(I1437
I1439
tp2980
a(I1439
I1453
tp2981
aa(lp2982
(I16
I20
tp2983
a(I20
I19
tp2984
a(I19
I18
tp2985
a(I18
I17
tp2986
a(I17
I1580
tp2987
a(I1580
I1579
tp2988
a(I1579
I16
tp2989
aa(lp2990
(I577
I576
tp2991
a(I576
I654
tp2992
a(I654
I659
tp2993
a(I659
I655
tp2994
a(I655
I656
tp2995
a(I656
I660
tp2996
a(I660
I577
tp2997
aa(lp2998
(I1098
I1099
tp2999
a(I1099
I1096
tp3000
a(I1096
I1095
tp3001
a(I1095
I1094
tp3002
a(I1094
I1089
tp3003
a(I1089
I1091
tp3004
a(I1091
I1098
tp3005
aa(lp3006
(I590
I589
tp3007
a(I589
I588
tp3008
a(I588
I587
tp3009
a(I587
I575
tp3010
a(I575
I574
tp3011
a(I574
I586
tp3012
a(I586
I590
tp3013
aa(lp3014
(I641
I640
tp3015
a(I640
I758
tp3016
a(I758
I752
tp3017
a(I752
I751
tp3018
a(I751
I768
tp3019
a(I768
I770
tp3020
a(I770
I641
tp3021
aa(lp3022
(I471
I472
tp3023
a(I472
I474
tp3024
a(I474
I473
tp3025
a(I473
I430
tp3026
a(I430
I429
tp3027
a(I429
I457
tp3028
a(I457
I471
tp3029
aa(lp3030
(I121
I120
tp3031
a(I120
I174
tp3032
a(I174
I173
tp3033
a(I173
I171
tp3034
a(I171
I172
tp3035
a(I172
I163
tp3036
a(I163
I121
tp3037
aa(lp3038
(I408
I485
tp3039
a(I485
I475
tp3040
a(I475
I476
tp3041
a(I476
I495
tp3042
a(I495
I496
tp3043
a(I496
I407
tp3044
a(I407
I408
tp3045
aa(lp3046
(I962
I967
tp3047
a(I967
I970
tp3048
a(I970
I969
tp3049
a(I969
I968
tp3050
a(I968
I950
tp3051
a(I950
I949
tp3052
a(I949
I962
tp3053
aa(lp3054
(I35
I37
tp3055
a(I37
I34
tp3056
a(I34
I1526
tp3057
a(I1526
I1525
tp3058
a(I1525
I1560
tp3059
a(I1560
I28
tp3060
a(I28
I35
tp3061
aa(lp3062
(I1225
I1223
tp3063
a(I1223
I1310
tp3064
a(I1310
I1312
tp3065
a(I1312
I1311
tp3066
a(I1311
I1172
tp3067
a(I1172
I1177
tp3068
a(I1177
I1225
tp3069
aa(lp3070
(I493
I490
tp3071
a(I490
I488
tp3072
a(I488
I487
tp3073
a(I487
I406
tp3074
a(I406
I400
tp3075
a(I400
I455
tp3076
a(I455
I493
tp3077
aa(lp3078
(I391
I502
tp3079
a(I502
I491
tp3080
a(I491
I480
tp3081
a(I480
I180
tp3082
a(I180
I191
tp3083
a(I191
I380
tp3084
a(I380
I391
tp3085
aa(lp3086
(I162
I160
tp3087
a(I160
I155
tp3088
a(I155
I151
tp3089
a(I151
I146
tp3090
a(I146
I149
tp3091
a(I149
I161
tp3092
a(I161
I162
tp3093
aa(lp3094
(I179
I1546
tp3095
a(I1546
I1545
tp3096
a(I1545
I103
tp3097
a(I103
I178
tp3098
a(I178
I1571
tp3099
a(I1571
I1573
tp3100
a(I1573
I179
tp3101
aa(lp3102
(I1335
I1336
tp3103
a(I1336
I1332
tp3104
a(I1332
I1331
tp3105
a(I1331
I1350
tp3106
a(I1350
I1351
tp3107
a(I1351
I1353
tp3108
a(I1353
I1335
tp3109
aa(lp3110
(I363
I364
tp3111
a(I364
I608
tp3112
a(I608
I607
tp3113
a(I607
I593
tp3114
a(I593
I589
tp3115
a(I589
I590
tp3116
a(I590
I363
tp3117
aa(lp3118
(I1058
I1065
tp3119
a(I1065
I1063
tp3120
a(I1063
I1066
tp3121
a(I1066
I1067
tp3122
a(I1067
I705
tp3123
a(I705
I704
tp3124
a(I704
I1058
tp3125
aa(lp3126
(I1315
I1481
tp3127
a(I1481
I1413
tp3128
a(I1413
I1410
tp3129
a(I1410
I1480
tp3130
a(I1480
I1482
tp3131
a(I1482
I1314
tp3132
a(I1314
I1315
tp3133
aa(lp3134
(I219
I220
tp3135
a(I220
I208
tp3136
a(I208
I211
tp3137
a(I211
I201
tp3138
a(I201
I199
tp3139
a(I199
I198
tp3140
a(I198
I219
tp3141
aa(lp3142
(I518
I516
tp3143
a(I516
I517
tp3144
a(I517
I272
tp3145
a(I272
I271
tp3146
a(I271
I504
tp3147
a(I504
I515
tp3148
a(I515
I518
tp3149
aa(lp3150
(I605
I618
tp3151
a(I618
I617
tp3152
a(I617
I616
tp3153
a(I616
I610
tp3154
a(I610
I612
tp3155
a(I612
I600
tp3156
a(I600
I605
tp3157
aa(lp3158
(I512
I511
tp3159
a(I511
I509
tp3160
a(I509
I510
tp3161
a(I510
I505
tp3162
a(I505
I508
tp3163
a(I508
I514
tp3164
a(I514
I512
tp3165
aa(lp3166
(I750
I760
tp3167
a(I760
I759
tp3168
a(I759
I754
tp3169
a(I754
I756
tp3170
a(I756
I744
tp3171
a(I744
I743
tp3172
a(I743
I750
tp3173
aa(lp3174
(I709
I720
tp3175
a(I720
I697
tp3176
a(I697
I686
tp3177
a(I686
I675
tp3178
a(I675
I1041
tp3179
a(I1041
I446
tp3180
a(I446
I709
tp3181
aa(lp3182
(I198
I199
tp3183
a(I199
I197
tp3184
a(I197
I185
tp3185
a(I185
I181
tp3186
a(I181
I186
tp3187
a(I186
I189
tp3188
a(I189
I198
tp3189
aa(lp3190
(I653
I654
tp3191
a(I654
I576
tp3192
a(I576
I570
tp3193
a(I570
I571
tp3194
a(I571
I650
tp3195
a(I650
I652
tp3196
a(I652
I653
tp3197
aa(lp3198
(I880
I1023
tp3199
a(I1023
I1024
tp3200
a(I1024
I1025
tp3201
a(I1025
I862
tp3202
a(I862
I861
tp3203
a(I861
I879
tp3204
a(I879
I880
tp3205
aa(lp3206
(I986
I975
tp3207
a(I975
I1053
tp3208
a(I1053
I1164
tp3209
a(I1164
I1175
tp3210
a(I1175
I1141
tp3211
a(I1141
I1153
tp3212
a(I1153
I986
tp3213
aa(lp3214
(I734
I730
tp3215
a(I730
I728
tp3216
a(I728
I723
tp3217
a(I723
I724
tp3218
a(I724
I732
tp3219
a(I732
I733
tp3220
a(I733
I734
tp3221
aa(lp3222
(I1487
I1483
tp3223
a(I1483
I1482
tp3224
a(I1482
I1480
tp3225
a(I1480
I1476
tp3226
a(I1476
I1477
tp3227
a(I1477
I1484
tp3228
a(I1484
I1487
tp3229
aa(lp3230
(I153
I154
tp3231
a(I154
I85
tp3232
a(I85
I84
tp3233
a(I84
I151
tp3234
a(I151
I155
tp3235
a(I155
I152
tp3236
a(I152
I153
tp3237
aa(lp3238
(I123
I126
tp3239
a(I126
I124
tp3240
a(I124
I122
tp3241
a(I122
I111
tp3242
a(I111
I110
tp3243
a(I110
I112
tp3244
a(I112
I123
tp3245
aa(lp3246
(I141
I143
tp3247
a(I143
I142
tp3248
a(I142
I135
tp3249
a(I135
I137
tp3250
a(I137
I140
tp3251
a(I140
I139
tp3252
a(I139
I141
tp3253
aa(lp3254
(I948
I926
tp3255
a(I926
I925
tp3256
a(I925
I941
tp3257
a(I941
I955
tp3258
a(I955
I956
tp3259
a(I956
I944
tp3260
a(I944
I948
tp3261
aa(lp3262
(I162
I161
tp3263
a(I161
I163
tp3264
a(I163
I172
tp3265
a(I172
I167
tp3266
a(I167
I168
tp3267
a(I168
I175
tp3268
a(I175
I162
tp3269
aa(lp3270
(I145
I146
tp3271
a(I146
I151
tp3272
a(I151
I84
tp3273
a(I84
I83
tp3274
a(I83
I133
tp3275
a(I133
I150
tp3276
a(I150
I145
tp3277
aa(lp3278
(I937
I1009
tp3279
a(I1009
I1014
tp3280
a(I1014
I1015
tp3281
a(I1015
I1012
tp3282
a(I1012
I1013
tp3283
a(I1013
I938
tp3284
a(I938
I937
tp3285
aa(lp3286
(I64
I26
tp3287
a(I26
I24
tp3288
a(I24
I56
tp3289
a(I56
I66
tp3290
a(I66
I65
tp3291
a(I65
I63
tp3292
a(I63
I64
tp3293
aa(lp3294
(I774
I778
tp3295
a(I778
I633
tp3296
a(I633
I634
tp3297
a(I634
I636
tp3298
a(I636
I791
tp3299
a(I791
I780
tp3300
a(I780
I774
tp3301
aa(lp3302
(I1259
I1249
tp3303
a(I1249
I1234
tp3304
a(I1234
I1237
tp3305
a(I1237
I1262
tp3306
a(I1262
I1260
tp3307
a(I1260
I1261
tp3308
a(I1261
I1259
tp3309
aa(lp3310
(I419
I420
tp3311
a(I420
I422
tp3312
a(I422
I423
tp3313
a(I423
I425
tp3314
a(I425
I381
tp3315
a(I381
I379
tp3316
a(I379
I419
tp3317
aa(lp3318
(I293
I307
tp3319
a(I307
I320
tp3320
a(I320
I319
tp3321
a(I319
I315
tp3322
a(I315
I316
tp3323
a(I316
I296
tp3324
a(I296
I293
tp3325
aa(lp3326
(I476
I475
tp3327
a(I475
I453
tp3328
a(I453
I452
tp3329
a(I452
I473
tp3330
a(I473
I474
tp3331
a(I474
I477
tp3332
a(I477
I476
tp3333
aa(lp3334
(I1559
I1542
tp3335
a(I1542
I1547
tp3336
a(I1547
I1565
tp3337
a(I1565
I1564
tp3338
a(I1564
I1561
tp3339
a(I1561
I1562
tp3340
a(I1562
I1559
tp3341
aa(lp3342
(I1182
I1181
tp3343
a(I1181
I1180
tp3344
a(I1180
I1167
tp3345
a(I1167
I1170
tp3346
a(I1170
I1184
tp3347
a(I1184
I1183
tp3348
a(I1183
I1182
tp3349
aa(lp3350
(I103
I1545
tp3351
a(I1545
I1544
tp3352
a(I1544
I46
tp3353
a(I46
I99
tp3354
a(I99
I100
tp3355
a(I100
I101
tp3356
a(I101
I103
tp3357
aa(lp3358
(I727
I447
tp3359
a(I447
I413
tp3360
a(I413
I723
tp3361
a(I723
I728
tp3362
a(I728
I729
tp3363
a(I729
I725
tp3364
a(I725
I727
tp3365
aa(lp3366
(I434
I433
tp3367
a(I433
I382
tp3368
a(I382
I383
tp3369
a(I383
I423
tp3370
a(I423
I422
tp3371
a(I422
I427
tp3372
a(I427
I434
tp3373
aa(lp3374
(I42
I95
tp3375
a(I95
I94
tp3376
a(I94
I76
tp3377
a(I76
I77
tp3378
a(I77
I96
tp3379
a(I96
I41
tp3380
a(I41
I42
tp3381
aa(lp3382
(I145
I148
tp3383
a(I148
I144
tp3384
a(I144
I115
tp3385
a(I115
I118
tp3386
a(I118
I149
tp3387
a(I149
I146
tp3388
a(I146
I145
tp3389
aa(lp3390
(I156
I98
tp3391
a(I98
I86
tp3392
a(I86
I85
tp3393
a(I85
I154
tp3394
a(I154
I159
tp3395
a(I159
I157
tp3396
a(I157
I156
tp3397
aa(lp3398
(I707
I711
tp3399
a(I711
I710
tp3400
a(I710
I302
tp3401
a(I302
I1574
tp3402
a(I1574
I3
tp3403
a(I3
I712
tp3404
a(I712
I707
tp3405
aa(lp3406
(I435
I458
tp3407
a(I458
I727
tp3408
a(I727
I725
tp3409
a(I725
I726
tp3410
a(I726
I722
tp3411
a(I722
I721
tp3412
a(I721
I435
tp3413
aa(lp3414
(I772
I776
tp3415
a(I776
I777
tp3416
a(I777
I778
tp3417
a(I778
I774
tp3418
a(I774
I1541
tp3419
a(I1541
I1530
tp3420
a(I1530
I772
tp3421
aa(lp3422
(I1126
I1136
tp3423
a(I1136
I1140
tp3424
a(I1140
I370
tp3425
a(I370
I1111
tp3426
a(I1111
I1110
tp3427
a(I1110
I1112
tp3428
a(I1112
I1126
tp3429
aa(lp3430
(I1482
I1483
tp3431
a(I1483
I1488
tp3432
a(I1488
I1489
tp3433
a(I1489
I1490
tp3434
a(I1490
I1491
tp3435
a(I1491
I1316
tp3436
a(I1316
I1314
tp3437
a(I1314
I1482
tp3438
aa(lp3439
(I521
I522
tp3440
a(I522
I506
tp3441
a(I506
I394
tp3442
a(I394
I395
tp3443
a(I395
I520
tp3444
a(I520
I511
tp3445
a(I511
I512
tp3446
a(I512
I521
tp3447
aa(lp3448
(I1403
I1398
tp3449
a(I1398
I1399
tp3450
a(I1399
I1415
tp3451
a(I1415
I1416
tp3452
a(I1416
I1394
tp3453
a(I1394
I1388
tp3454
a(I1388
I1387
tp3455
a(I1387
I1403
tp3456
aa(lp3457
(I1134
I368
tp3458
a(I368
I370
tp3459
a(I370
I1140
tp3460
a(I1140
I1139
tp3461
a(I1139
I1137
tp3462
a(I1137
I1142
tp3463
a(I1142
I1135
tp3464
a(I1135
I1134
tp3465
aa(lp3466
(I1271
I1272
tp3467
a(I1272
I1273
tp3468
a(I1273
I1260
tp3469
a(I1260
I1262
tp3470
a(I1262
I1236
tp3471
a(I1236
I1235
tp3472
a(I1235
I1268
tp3473
a(I1268
I1271
tp3474
aa(lp3475
(I418
I503
tp3476
a(I503
I504
tp3477
a(I504
I271
tp3478
a(I271
I268
tp3479
a(I268
I501
tp3480
a(I501
I500
tp3481
a(I500
I417
tp3482
a(I417
I418
tp3483
aa(lp3484
(I590
I586
tp3485
a(I586
I583
tp3486
a(I583
I585
tp3487
a(I585
I620
tp3488
a(I620
I621
tp3489
a(I621
I366
tp3490
a(I366
I363
tp3491
a(I363
I590
tp3492
aa(lp3493
(I1214
I1215
tp3494
a(I1215
I1283
tp3495
a(I1283
I1204
tp3496
a(I1204
I1194
tp3497
a(I1194
I1196
tp3498
a(I1196
I1285
tp3499
a(I1285
I1284
tp3500
a(I1284
I1214
tp3501
aa(lp3502
(I349
I345
tp3503
a(I345
I346
tp3504
a(I346
I348
tp3505
a(I348
I326
tp3506
a(I326
I325
tp3507
a(I325
I331
tp3508
a(I331
I338
tp3509
a(I338
I349
tp3510
aa(lp3511
(I1017
I1018
tp3512
a(I1018
I1012
tp3513
a(I1012
I1015
tp3514
a(I1015
I1020
tp3515
a(I1020
I1004
tp3516
a(I1004
I1002
tp3517
a(I1002
I1001
tp3518
a(I1001
I1017
tp3519
aa(lp3520
(I497
I495
tp3521
a(I495
I476
tp3522
a(I476
I477
tp3523
a(I477
I465
tp3524
a(I465
I467
tp3525
a(I467
I459
tp3526
a(I459
I460
tp3527
a(I460
I497
tp3528
aa(lp3529
(I983
I982
tp3530
a(I982
I932
tp3531
a(I932
I934
tp3532
a(I934
I985
tp3533
a(I985
I984
tp3534
a(I984
I978
tp3535
a(I978
I981
tp3536
a(I981
I983
tp3537
aa(lp3538
(I1580
I1581
tp3539
a(I1581
I1575
tp3540
a(I1575
I1577
tp3541
a(I1577
I1582
tp3542
a(I1582
I1583
tp3543
a(I1583
I1578
tp3544
a(I1578
I1579
tp3545
a(I1579
I1580
tp3546
aa(lp3547
(I1008
I1141
tp3548
a(I1141
I1175
tp3549
a(I1175
I1219
tp3550
a(I1219
I1186
tp3551
a(I1186
I1197
tp3552
a(I1197
I1208
tp3553
a(I1208
I997
tp3554
a(I997
I1008
tp3555
aa(lp3556
(I1039
I1043
tp3557
a(I1043
I869
tp3558
a(I869
I868
tp3559
a(I868
I1038
tp3560
a(I1038
I1035
tp3561
a(I1035
I1037
tp3562
a(I1037
I1040
tp3563
a(I1040
I1039
tp3564
aa(lp3565
(I915
I916
tp3566
a(I916
I1011
tp3567
a(I1011
I1003
tp3568
a(I1003
I1005
tp3569
a(I1005
I1010
tp3570
a(I1010
I1009
tp3571
a(I1009
I937
tp3572
a(I937
I915
tp3573
aa(lp3574
(I108
I107
tp3575
a(I107
I82
tp3576
a(I82
I81
tp3577
a(I81
I60
tp3578
a(I60
I62
tp3579
a(I62
I105
tp3580
a(I105
I106
tp3581
a(I106
I108
tp3582
aa(lp3583
(I650
I568
tp3584
a(I568
I567
tp3585
a(I567
I664
tp3586
a(I664
I819
tp3587
a(I819
I930
tp3588
a(I930
I651
tp3589
a(I651
I652
tp3590
a(I652
I650
tp3591
aa(lp3592
(I466
I463
tp3593
a(I463
I464
tp3594
a(I464
I456
tp3595
a(I456
I462
tp3596
a(I462
I468
tp3597
a(I468
I467
tp3598
a(I467
I465
tp3599
a(I465
I466
tp3600
aa(lp3601
(I1088
I1081
tp3602
a(I1081
I1080
tp3603
a(I1080
I1083
tp3604
a(I1083
I1084
tp3605
a(I1084
I1090
tp3606
a(I1090
I1091
tp3607
a(I1091
I1089
tp3608
a(I1089
I1088
tp3609
aa(lp3610
(I843
I835
tp3611
a(I835
I836
tp3612
a(I836
I847
tp3613
a(I847
I848
tp3614
a(I848
I852
tp3615
a(I852
I855
tp3616
a(I855
I854
tp3617
a(I854
I843
tp3618
aa(lp3619
(I251
I252
tp3620
a(I252
I243
tp3621
a(I243
I1472
tp3622
a(I1472
I1473
tp3623
a(I1473
I254
tp3624
a(I254
I253
tp3625
a(I253
I250
tp3626
a(I250
I251
tp3627
aa(lp3628
(I861
I860
tp3629
a(I860
I884
tp3630
a(I884
I890
tp3631
a(I890
I891
tp3632
a(I891
I892
tp3633
a(I892
I874
tp3634
a(I874
I879
tp3635
a(I879
I861
tp3636
aa(lp3637
(I1568
I22
tp3638
a(I22
I23
tp3639
a(I23
I24
tp3640
a(I24
I26
tp3641
a(I26
I27
tp3642
a(I27
I1562
tp3643
a(I1562
I1561
tp3644
a(I1561
I1568
tp3645
aa(lp3646
(I1000
I888
tp3647
a(I888
I885
tp3648
a(I885
I991
tp3649
a(I991
I995
tp3650
a(I995
I996
tp3651
a(I996
I998
tp3652
a(I998
I999
tp3653
a(I999
I1000
tp3654
aa(lp3655
(I628
I792
tp3656
a(I792
I791
tp3657
a(I791
I636
tp3658
a(I636
I637
tp3659
a(I637
I776
tp3660
a(I776
I772
tp3661
a(I772
I773
tp3662
a(I773
I628
tp3663
aa(lp3664
(I870
I869
tp3665
a(I869
I1043
tp3666
a(I1043
I1044
tp3667
a(I1044
I1033
tp3668
a(I1033
I1034
tp3669
a(I1034
I1026
tp3670
a(I1026
I1028
tp3671
a(I1028
I870
tp3672
aa(lp3673
(I462
I456
tp3674
a(I456
I457
tp3675
a(I457
I429
tp3676
a(I429
I432
tp3677
a(I432
I460
tp3678
a(I460
I459
tp3679
a(I459
I461
tp3680
a(I461
I462
tp3681
aa(lp3682
(I1147
I1191
tp3683
a(I1191
I1200
tp3684
a(I1200
I1199
tp3685
a(I1199
I1192
tp3686
a(I1192
I1193
tp3687
a(I1193
I1201
tp3688
a(I1201
I1148
tp3689
a(I1148
I1147
tp3690
aa(lp3691
(I718
I721
tp3692
a(I721
I722
tp3693
a(I722
I724
tp3694
a(I724
I723
tp3695
a(I723
I413
tp3696
a(I413
I336
tp3697
a(I336
I324
tp3698
a(I324
I718
tp3699
aa(lp3700
(I1195
I1198
tp3701
a(I1198
I1196
tp3702
a(I1196
I1194
tp3703
a(I1194
I1193
tp3704
a(I1193
I1192
tp3705
a(I1192
I1185
tp3706
a(I1185
I1190
tp3707
a(I1190
I1195
tp3708
aa(lp3709
(I520
I342
tp3710
a(I342
I341
tp3711
a(I341
I519
tp3712
a(I519
I516
tp3713
a(I516
I518
tp3714
a(I518
I509
tp3715
a(I509
I511
tp3716
a(I511
I520
tp3717
aa(lp3718
(I624
I666
tp3719
a(I666
I236
tp3720
a(I236
I202
tp3721
a(I202
I535
tp3722
a(I535
I665
tp3723
a(I665
I657
tp3724
a(I657
I591
tp3725
a(I591
I624
tp3726
aa(lp3727
(I212
I214
tp3728
a(I214
I192
tp3729
a(I192
I195
tp3730
a(I195
I222
tp3731
a(I222
I204
tp3732
a(I204
I205
tp3733
a(I205
I221
tp3734
a(I221
I212
tp3735
aa(lp3736
(I787
I790
tp3737
a(I790
I556
tp3738
a(I556
I555
tp3739
a(I555
I559
tp3740
a(I559
I554
tp3741
a(I554
I1428
tp3742
a(I1428
I1429
tp3743
a(I1429
I787
tp3744
aa(lp3745
(I8
I7
tp3746
a(I7
I1589
tp3747
a(I1589
I1588
tp3748
a(I1588
I1595
tp3749
a(I1595
I10
tp3750
a(I10
I9
tp3751
a(I9
I6
tp3752
a(I6
I8
tp3753
aa(lp3754
(I1248
I1253
tp3755
a(I1253
I1258
tp3756
a(I1258
I1232
tp3757
a(I1232
I1233
tp3758
a(I1233
I1257
tp3759
a(I1257
I1256
tp3760
a(I1256
I1254
tp3761
a(I1254
I1248
tp3762
aa(lp3763
(I128
I124
tp3764
a(I124
I126
tp3765
a(I126
I134
tp3766
a(I134
I137
tp3767
a(I137
I135
tp3768
a(I135
I138
tp3769
a(I138
I129
tp3770
a(I129
I128
tp3771
aa(lp3772
(I505
I503
tp3773
a(I503
I418
tp3774
a(I418
I393
tp3775
a(I393
I394
tp3776
a(I394
I506
tp3777
a(I506
I507
tp3778
a(I507
I508
tp3779
a(I508
I505
tp3780
aa(lp3781
(I1337
I1335
tp3782
a(I1335
I1353
tp3783
a(I1353
I1361
tp3784
a(I1361
I1368
tp3785
a(I1368
I1367
tp3786
a(I1367
I1366
tp3787
a(I1366
I1365
tp3788
a(I1365
I1337
tp3789
aa(lp3790
(I1264
I1286
tp3791
a(I1286
I1319
tp3792
a(I1319
I1352
tp3793
a(I1352
I1341
tp3794
a(I1341
I1330
tp3795
a(I1330
I1308
tp3796
a(I1308
I1297
tp3797
a(I1297
I1264
tp3798
aa(lp3799
(I1497
I1508
tp3800
a(I1508
I745
tp3801
a(I745
I744
tp3802
a(I744
I756
tp3803
a(I756
I757
tp3804
a(I757
I762
tp3805
a(I762
I763
tp3806
a(I763
I1497
tp3807
aa(lp3808
(I1224
I1306
tp3809
a(I1306
I1171
tp3810
a(I1171
I1176
tp3811
a(I1176
I1309
tp3812
a(I1309
I1307
tp3813
a(I1307
I1310
tp3814
a(I1310
I1223
tp3815
a(I1223
I1224
tp3816
aa(lp3817
(I1276
I1272
tp3818
a(I1272
I1271
tp3819
a(I1271
I1277
tp3820
a(I1277
I1278
tp3821
a(I1278
I1279
tp3822
a(I1279
I1280
tp3823
a(I1280
I1274
tp3824
a(I1274
I1276
tp3825
aa(lp3826
(I752
I747
tp3827
a(I747
I749
tp3828
a(I749
I748
tp3829
a(I748
I750
tp3830
a(I750
I743
tp3831
a(I743
I746
tp3832
a(I746
I751
tp3833
a(I751
I752
tp3834
aa(lp3835
(I49
I50
tp3836
a(I50
I92
tp3837
a(I92
I88
tp3838
a(I88
I75
tp3839
a(I75
I76
tp3840
a(I76
I94
tp3841
a(I94
I93
tp3842
a(I93
I49
tp3843
aa(lp3844
(I1250
I1251
tp3845
a(I1251
I1253
tp3846
a(I1253
I1248
tp3847
a(I1248
I1247
tp3848
a(I1247
I1231
tp3849
a(I1231
I1234
tp3850
a(I1234
I1249
tp3851
a(I1249
I1250
tp3852
aa(lp3853
(I615
I597
tp3854
a(I597
I599
tp3855
a(I599
I614
tp3856
a(I614
I595
tp3857
a(I595
I594
tp3858
a(I594
I609
tp3859
a(I609
I611
tp3860
a(I611
I615
tp3861
aa(lp3862
(I1028
I1026
tp3863
a(I1026
I1027
tp3864
a(I1027
I1023
tp3865
a(I1023
I880
tp3866
a(I880
I882
tp3867
a(I882
I1031
tp3868
a(I1031
I1029
tp3869
a(I1029
I1028
tp3870
aa(lp3871
(I745
I1486
tp3872
a(I1486
I753
tp3873
a(I753
I675
tp3874
a(I675
I686
tp3875
a(I686
I746
tp3876
a(I746
I743
tp3877
a(I743
I744
tp3878
a(I744
I745
tp3879
aa(lp3880
(I1459
I1458
tp3881
a(I1458
I1454
tp3882
a(I1454
I1455
tp3883
a(I1455
I1465
tp3884
a(I1465
I1460
tp3885
a(I1460
I1464
tp3886
a(I1464
I1462
tp3887
a(I1462
I1461
tp3888
a(I1461
I1459
tp3889
aa(lp3890
(I692
I693
tp3891
a(I693
I694
tp3892
a(I694
I695
tp3893
a(I695
I696
tp3894
a(I696
I691
tp3895
a(I691
I679
tp3896
a(I679
I678
tp3897
a(I678
I690
tp3898
a(I690
I692
tp3899
aa(lp3900
(I978
I891
tp3901
a(I891
I890
tp3902
a(I890
I899
tp3903
a(I899
I929
tp3904
a(I929
I933
tp3905
a(I933
I979
tp3906
a(I979
I980
tp3907
a(I980
I981
tp3908
a(I981
I978
tp3909
aa(lp3910
(I409
I497
tp3911
a(I497
I460
tp3912
a(I460
I432
tp3913
a(I432
I421
tp3914
a(I421
I416
tp3915
a(I416
I417
tp3916
a(I417
I500
tp3917
a(I500
I414
tp3918
a(I414
I409
tp3919
aa(lp3920
(I218
I217
tp3921
a(I217
I219
tp3922
a(I219
I198
tp3923
a(I198
I189
tp3924
a(I189
I190
tp3925
a(I190
I216
tp3926
a(I216
I206
tp3927
a(I206
I210
tp3928
a(I210
I218
tp3929
aa(lp3930
(I595
I596
tp3931
a(I596
I592
tp3932
a(I592
I552
tp3933
a(I552
I551
tp3934
a(I551
I588
tp3935
a(I588
I589
tp3936
a(I589
I593
tp3937
a(I593
I594
tp3938
a(I594
I595
tp3939
aa(lp3940
(I1339
I1340
tp3941
a(I1340
I1342
tp3942
a(I1342
I1329
tp3943
a(I1329
I1158
tp3944
a(I1158
I1163
tp3945
a(I1163
I1344
tp3946
a(I1344
I1345
tp3947
a(I1345
I1343
tp3948
a(I1343
I1339
tp3949
aa(lp3950
(I354
I355
tp3951
a(I355
I1557
tp3952
a(I1557
I1554
tp3953
a(I1554
I330
tp3954
a(I330
I339
tp3955
a(I339
I353
tp3956
a(I353
I256
tp3957
a(I256
I260
tp3958
a(I260
I354
tp3959
aa(lp3960
(I833
I1328
tp3961
a(I1328
I1333
tp3962
a(I1333
I1336
tp3963
a(I1336
I1335
tp3964
a(I1335
I1337
tp3965
a(I1337
I1338
tp3966
a(I1338
I1157
tp3967
a(I1157
I832
tp3968
a(I832
I833
tp3969
aa(lp3970
(I773
I765
tp3971
a(I765
I768
tp3972
a(I768
I751
tp3973
a(I751
I746
tp3974
a(I746
I686
tp3975
a(I686
I697
tp3976
a(I697
I629
tp3977
a(I629
I628
tp3978
a(I628
I773
tp3979
aa(lp3980
(I921
I940
tp3981
a(I940
I943
tp3982
a(I943
I941
tp3983
a(I941
I925
tp3984
a(I925
I929
tp3985
a(I929
I899
tp3986
a(I899
I900
tp3987
a(I900
I920
tp3988
a(I920
I921
tp3989
aa(lp3990
(I836
I835
tp3991
a(I835
I822
tp3992
a(I822
I824
tp3993
a(I824
I698
tp3994
a(I698
I701
tp3995
a(I701
I837
tp3996
a(I837
I838
tp3997
a(I838
I834
tp3998
a(I834
I836
tp3999
aa(lp4000
(I250
I255
tp4001
a(I255
I261
tp4002
a(I261
I278
tp4003
a(I278
I277
tp4004
a(I277
I274
tp4005
a(I274
I276
tp4006
a(I276
I275
tp4007
a(I275
I251
tp4008
a(I251
I250
tp4009
aa(lp4010
(I860
I859
tp4011
a(I859
I873
tp4012
a(I873
I878
tp4013
a(I878
I887
tp4014
a(I887
I885
tp4015
a(I885
I888
tp4016
a(I888
I889
tp4017
a(I889
I884
tp4018
a(I884
I860
tp4019
aa(lp4020
(I1306
I1222
tp4021
a(I1222
I1221
tp4022
a(I1221
I1304
tp4023
a(I1304
I1305
tp4024
a(I1305
I1299
tp4025
a(I1299
I1184
tp4026
a(I1184
I1170
tp4027
a(I1170
I1171
tp4028
a(I1171
I1306
tp4029
aa(lp4030
(I1118
I1114
tp4031
a(I1114
I1226
tp4032
a(I1226
I1155
tp4033
a(I1155
I1166
tp4034
a(I1166
I1313
tp4035
a(I1313
I1315
tp4036
a(I1315
I1314
tp4037
a(I1314
I1316
tp4038
a(I1316
I1118
tp4039
aa(lp4040
(I1478
I1475
tp4041
a(I1475
I1476
tp4042
a(I1476
I1480
tp4043
a(I1480
I1410
tp4044
a(I1410
I1412
tp4045
a(I1412
I1479
tp4046
a(I1479
I1449
tp4047
a(I1449
I1448
tp4048
a(I1448
I1478
tp4049
aa(lp4050
(I527
I526
tp4051
a(I526
I532
tp4052
a(I532
I533
tp4053
a(I533
I534
tp4054
a(I534
I1460
tp4055
a(I1460
I1465
tp4056
a(I1465
I536
tp4057
a(I536
I537
tp4058
a(I537
I527
tp4059
aa(lp4060
(I1477
I1468
tp4061
a(I1468
I1471
tp4062
a(I1471
I241
tp4063
a(I241
I240
tp4064
a(I240
I223
tp4065
a(I223
I226
tp4066
a(I226
I239
tp4067
a(I239
I1484
tp4068
a(I1484
I1477
tp4069
aa(lp4070
(I75
I88
tp4071
a(I88
I90
tp4072
a(I90
I89
tp4073
a(I89
I48
tp4074
a(I48
I32
tp4075
a(I32
I33
tp4076
a(I33
I87
tp4077
a(I87
I74
tp4078
a(I74
I75
tp4079
aa(lp4080
(I975
I986
tp4081
a(I986
I1019
tp4082
a(I1019
I1008
tp4083
a(I1008
I997
tp4084
a(I997
I1030
tp4085
a(I1030
I1042
tp4086
a(I1042
I842
tp4087
a(I842
I853
tp4088
a(I853
I975
tp4089
aa(lp4090
(I1264
I1230
tp4091
a(I1230
I1030
tp4092
a(I1030
I997
tp4093
a(I997
I1208
tp4094
a(I1208
I1252
tp4095
a(I1252
I1241
tp4096
a(I1241
I1275
tp4097
a(I1275
I1286
tp4098
a(I1286
I1264
tp4099
aa(lp4100
(I984
I985
tp4101
a(I985
I987
tp4102
a(I987
I988
tp4103
a(I988
I989
tp4104
a(I989
I990
tp4105
a(I990
I876
tp4106
a(I876
I874
tp4107
a(I874
I892
tp4108
a(I892
I984
tp4109
aa(lp4110
(I1069
I1074
tp4111
a(I1074
I1076
tp4112
a(I1076
I1072
tp4113
a(I1072
I1073
tp4114
a(I1073
I1071
tp4115
a(I1071
I1055
tp4116
a(I1055
I1054
tp4117
a(I1054
I1068
tp4118
a(I1068
I1069
tp4119
aa(lp4120
(I1592
I1588
tp4121
a(I1588
I1589
tp4122
a(I1589
I1591
tp4123
a(I1591
I1590
tp4124
a(I1590
I1578
tp4125
a(I1578
I1583
tp4126
a(I1583
I1594
tp4127
a(I1594
I1593
tp4128
a(I1593
I1592
tp4129
aa(lp4130
(I1185
I1187
tp4131
a(I1187
I1188
tp4132
a(I1188
I1189
tp4133
a(I1189
I1151
tp4134
a(I1151
I1150
tp4135
a(I1150
I1181
tp4136
a(I1181
I1182
tp4137
a(I1182
I1190
tp4138
a(I1190
I1185
tp4139
aa(lp4140
(I307
I293
tp4141
a(I293
I292
tp4142
a(I292
I300
tp4143
a(I300
I301
tp4144
a(I301
I308
tp4145
a(I308
I304
tp4146
a(I304
I305
tp4147
a(I305
I306
tp4148
a(I306
I307
tp4149
aa(lp4150
(I1321
I1322
tp4151
a(I1322
I1318
tp4152
a(I1318
I1320
tp4153
a(I1320
I1317
tp4154
a(I1317
I815
tp4155
a(I815
I813
tp4156
a(I813
I800
tp4157
a(I800
I802
tp4158
a(I802
I1321
tp4159
aa(lp4160
(I974
I963
tp4161
a(I963
I951
tp4162
a(I951
I954
tp4163
a(I954
I971
tp4164
a(I971
I972
tp4165
a(I972
I968
tp4166
a(I968
I969
tp4167
a(I969
I973
tp4168
a(I973
I974
tp4169
aa(lp4170
(I814
I689
tp4171
a(I689
I687
tp4172
a(I687
I813
tp4173
a(I813
I815
tp4174
a(I815
I816
tp4175
a(I816
I821
tp4176
a(I821
I818
tp4177
a(I818
I817
tp4178
a(I817
I814
tp4179
aa(lp4180
(I897
I14
tp4181
a(I14
I36
tp4182
a(I36
I58
tp4183
a(I58
I69
tp4184
a(I69
I1097
tp4185
a(I1097
I1108
tp4186
a(I1108
I47
tp4187
a(I47
I886
tp4188
a(I886
I897
tp4189
aa(lp4190
(I1549
I1548
tp4191
a(I1548
I1507
tp4192
a(I1507
I1512
tp4193
a(I1512
I183
tp4194
a(I183
I184
tp4195
a(I184
I182
tp4196
a(I182
I181
tp4197
a(I181
I185
tp4198
a(I185
I1549
tp4199
aa(lp4200
(I1165
I1156
tp4201
a(I1156
I1334
tp4202
a(I1334
I1396
tp4203
a(I1396
I1400
tp4204
a(I1400
I1399
tp4205
a(I1399
I1398
tp4206
a(I1398
I1401
tp4207
a(I1401
I1402
tp4208
a(I1402
I1165
tp4209
aa(lp4210
(I1506
I1505
tp4211
a(I1505
I1494
tp4212
a(I1494
I1499
tp4213
a(I1499
I1509
tp4214
a(I1509
I1510
tp4215
a(I1510
I1511
tp4216
a(I1511
I1512
tp4217
a(I1512
I1507
tp4218
a(I1507
I1506
tp4219
aa(lp4220
(I1559
I1562
tp4221
a(I1562
I27
tp4222
a(I27
I29
tp4223
a(I29
I30
tp4224
a(I30
I31
tp4225
a(I31
I33
tp4226
a(I33
I32
tp4227
a(I32
I28
tp4228
a(I28
I1560
tp4229
a(I1560
I1559
tp4230
aa(lp4231
(I1107
I1109
tp4232
a(I1109
I1103
tp4233
a(I1103
I1102
tp4234
a(I1102
I1100
tp4235
a(I1100
I1096
tp4236
a(I1096
I1099
tp4237
a(I1099
I1104
tp4238
a(I1104
I1105
tp4239
a(I1105
I1106
tp4240
a(I1106
I1107
tp4241
aa(lp4242
(I1419
I1119
tp4243
a(I1119
I1097
tp4244
a(I1097
I69
tp4245
a(I69
I102
tp4246
a(I102
I125
tp4247
a(I125
I114
tp4248
a(I114
I91
tp4249
a(I91
I136
tp4250
a(I136
I80
tp4251
a(I80
I1419
tp4252
aa(lp4253
(I844
I846
tp4254
a(I846
I845
tp4255
a(I845
I841
tp4256
a(I841
I840
tp4257
a(I840
I839
tp4258
a(I839
I823
tp4259
a(I823
I822
tp4260
a(I822
I835
tp4261
a(I835
I843
tp4262
a(I843
I844
tp4263
aa(lp4264
(I340
I371
tp4265
a(I371
I372
tp4266
a(I372
I373
tp4267
a(I373
I374
tp4268
a(I374
I267
tp4269
a(I267
I257
tp4270
a(I257
I259
tp4271
a(I259
I353
tp4272
a(I353
I339
tp4273
a(I339
I340
tp4274
aa(lp4275
(I49
I52
tp4276
a(I52
I38
tp4277
a(I38
I39
tp4278
a(I39
I35
tp4279
a(I35
I28
tp4280
a(I28
I32
tp4281
a(I32
I48
tp4282
a(I48
I51
tp4283
a(I51
I50
tp4284
a(I50
I49
tp4285
aa(lp4286
(I57
I59
tp4287
a(I59
I56
tp4288
a(I56
I24
tp4289
a(I24
I23
tp4290
a(I23
I54
tp4291
a(I54
I55
tp4292
a(I55
I61
tp4293
a(I61
I62
tp4294
a(I62
I60
tp4295
a(I60
I57
tp4296
aa(lp4297
(I552
I553
tp4298
a(I553
I360
tp4299
a(I360
I361
tp4300
a(I361
I548
tp4301
a(I548
I540
tp4302
a(I540
I543
tp4303
a(I543
I549
tp4304
a(I549
I550
tp4305
a(I550
I551
tp4306
a(I551
I552
tp4307
aa(lp4308
(I1391
I1392
tp4309
a(I1392
I1420
tp4310
a(I1420
I804
tp4311
a(I804
I810
tp4312
a(I810
I1422
tp4313
a(I1422
I1423
tp4314
a(I1423
I1405
tp4315
a(I1405
I1407
tp4316
a(I1407
I1421
tp4317
a(I1421
I1391
tp4318
aa(lp4319
(I1353
I1351
tp4320
a(I1351
I1356
tp4321
a(I1356
I1362
tp4322
a(I1362
I1364
tp4323
a(I1364
I1357
tp4324
a(I1357
I1358
tp4325
a(I1358
I1360
tp4326
a(I1360
I1359
tp4327
a(I1359
I1361
tp4328
a(I1361
I1353
tp4329
aa(lp4330
(I119
I5
tp4331
a(I5
I1592
tp4332
a(I1592
I1593
tp4333
a(I1593
I170
tp4334
a(I170
I168
tp4335
a(I168
I167
tp4336
a(I167
I164
tp4337
a(I164
I165
tp4338
a(I165
I166
tp4339
a(I166
I119
tp4340
aa(lp4341
(I1427
I1424
tp4342
a(I1424
I1425
tp4343
a(I1425
I1426
tp4344
a(I1426
I1422
tp4345
a(I1422
I810
tp4346
a(I810
I785
tp4347
a(I785
I788
tp4348
a(I788
I1429
tp4349
a(I1429
I1428
tp4350
a(I1428
I1427
tp4351
aa(lp4352
(I403
I451
tp4353
a(I451
I445
tp4354
a(I445
I428
tp4355
a(I428
I431
tp4356
a(I431
I452
tp4357
a(I452
I453
tp4358
a(I453
I454
tp4359
a(I454
I455
tp4360
a(I455
I400
tp4361
a(I400
I403
tp4362
aa(lp4363
(I1566
I1567
tp4364
a(I1567
I1568
tp4365
a(I1568
I1561
tp4366
a(I1561
I1564
tp4367
a(I1564
I1573
tp4368
a(I1573
I1571
tp4369
a(I1571
I1572
tp4370
a(I1572
I1570
tp4371
a(I1570
I1569
tp4372
a(I1569
I1566
tp4373
aa(lp4374
(I426
I427
tp4375
a(I427
I422
tp4376
a(I422
I420
tp4377
a(I420
I421
tp4378
a(I421
I432
tp4379
a(I432
I429
tp4380
a(I429
I430
tp4381
a(I430
I431
tp4382
a(I431
I428
tp4383
a(I428
I426
tp4384
aa(lp4385
(I156
I157
tp4386
a(I157
I152
tp4387
a(I152
I155
tp4388
a(I155
I160
tp4389
a(I160
I1576
tp4390
a(I1576
I1569
tp4391
a(I1569
I1570
tp4392
a(I1570
I101
tp4393
a(I101
I100
tp4394
a(I100
I156
tp4395
aa(lp4396
(I591
I602
tp4397
a(I602
I513
tp4398
a(I513
I558
tp4399
a(I558
I635
tp4400
a(I635
I646
tp4401
a(I646
I225
tp4402
a(I225
I247
tp4403
a(I247
I613
tp4404
a(I613
I624
tp4405
a(I624
I591
tp4406
aa(lp4407
(I768
I765
tp4408
a(I765
I1519
tp4409
a(I1519
I1497
tp4410
a(I1497
I763
tp4411
a(I763
I767
tp4412
a(I767
I766
tp4413
a(I766
I769
tp4414
a(I769
I771
tp4415
a(I771
I770
tp4416
a(I770
I768
tp4417
aa(lp4418
(I1113
I1210
tp4419
a(I1210
I1242
tp4420
a(I1242
I1243
tp4421
a(I1243
I1244
tp4422
a(I1244
I1228
tp4423
a(I1228
I1240
tp4424
a(I1240
I1246
tp4425
a(I1246
I1245
tp4426
a(I1245
I1115
tp4427
a(I1115
I1113
tp4428
aa(lp4429
(I235
I322
tp4430
a(I322
I323
tp4431
a(I323
I314
tp4432
a(I314
I265
tp4433
a(I265
I266
tp4434
a(I266
I325
tp4435
a(I325
I326
tp4436
a(I326
I327
tp4437
a(I327
I328
tp4438
a(I328
I233
tp4439
a(I233
I235
tp4440
aa(lp4441
(I793
I794
tp4442
a(I794
I681
tp4443
a(I681
I682
tp4444
a(I682
I741
tp4445
a(I741
I740
tp4446
a(I740
I782
tp4447
a(I782
I784
tp4448
a(I784
I795
tp4449
a(I795
I796
tp4450
a(I796
I798
tp4451
a(I798
I793
tp4452
aa(lp4453
(I906
I893
tp4454
a(I893
I901
tp4455
a(I901
I907
tp4456
a(I907
I910
tp4457
a(I910
I911
tp4458
a(I911
I909
tp4459
a(I909
I902
tp4460
a(I902
I905
tp4461
a(I905
I904
tp4462
a(I904
I903
tp4463
a(I903
I906
tp4464
aa(lp4465
(I1206
I1207
tp4466
a(I1207
I1202
tp4467
a(I1202
I1203
tp4468
a(I1203
I1107
tp4469
a(I1107
I1106
tp4470
a(I1106
I1201
tp4471
a(I1201
I1193
tp4472
a(I1193
I1194
tp4473
a(I1194
I1204
tp4474
a(I1204
I1205
tp4475
a(I1205
I1206
tp4476
aa(lp4477
(I701
I698
tp4478
a(I698
I703
tp4479
a(I703
I704
tp4480
a(I704
I705
tp4481
a(I705
I706
tp4482
a(I706
I691
tp4483
a(I691
I696
tp4484
a(I696
I699
tp4485
a(I699
I700
tp4486
a(I700
I702
tp4487
a(I702
I701
tp4488
aa(lp4489
(I1108
I1097
tp4490
a(I1097
I1119
tp4491
a(I1119
I1086
tp4492
a(I1086
I1130
tp4493
a(I1130
I1075
tp4494
a(I1075
I1064
tp4495
a(I1064
I1053
tp4496
a(I1053
I975
tp4497
a(I975
I853
tp4498
a(I853
I919
tp4499
a(I919
I1108
tp4500
aa(lp4501
(I1492
I1493
tp4502
a(I1493
I1490
tp4503
a(I1490
I1489
tp4504
a(I1489
I1531
tp4505
a(I1531
I1518
tp4506
a(I1518
I1523
tp4507
a(I1523
I1534
tp4508
a(I1534
I1533
tp4509
a(I1533
I1535
tp4510
a(I1535
I1532
tp4511
a(I1532
I1492
tp4512
aa(lp4513
(I1070
I1146
tp4514
a(I1146
I1147
tp4515
a(I1147
I1148
tp4516
a(I1148
I1105
tp4517
a(I1105
I1104
tp4518
a(I1104
I1145
tp4519
a(I1145
I1085
tp4520
a(I1085
I1087
tp4521
a(I1087
I1074
tp4522
a(I1074
I1069
tp4523
a(I1069
I1070
tp4524
aa(lp4525
(I1073
I1080
tp4526
a(I1080
I1081
tp4527
a(I1081
I1063
tp4528
a(I1063
I1065
tp4529
a(I1065
I1077
tp4530
a(I1077
I1078
tp4531
a(I1078
I1079
tp4532
a(I1079
I1056
tp4533
a(I1056
I1057
tp4534
a(I1057
I1071
tp4535
a(I1071
I1073
tp4536
aa(lp4537
(I249
I227
tp4538
a(I227
I223
tp4539
a(I223
I240
tp4540
a(I240
I1469
tp4541
a(I1469
I1472
tp4542
a(I1472
I243
tp4543
a(I243
I245
tp4544
a(I245
I246
tp4545
a(I246
I244
tp4546
a(I244
I248
tp4547
a(I248
I249
tp4548
aa(lp4549
(I283
I279
tp4550
a(I279
I281
tp4551
a(I281
I282
tp4552
a(I282
I274
tp4553
a(I274
I277
tp4554
a(I277
I286
tp4555
a(I286
I285
tp4556
a(I285
I244
tp4557
a(I244
I246
tp4558
a(I246
I284
tp4559
a(I284
I283
tp4560
aa(lp4561
(I861
I862
tp4562
a(I862
I863
tp4563
a(I863
I865
tp4564
a(I865
I858
tp4565
a(I858
I854
tp4566
a(I854
I855
tp4567
a(I855
I856
tp4568
a(I856
I857
tp4569
a(I857
I859
tp4570
a(I859
I860
tp4571
a(I860
I861
tp4572
aa(lp4573
(I898
I894
tp4574
a(I894
I900
tp4575
a(I900
I899
tp4576
a(I899
I890
tp4577
a(I890
I884
tp4578
a(I884
I889
tp4579
a(I889
I901
tp4580
a(I901
I893
tp4581
a(I893
I896
tp4582
a(I896
I895
tp4583
a(I895
I898
tp4584
aa(lp4585
(I445
I396
tp4586
a(I396
I397
tp4587
a(I397
I444
tp4588
a(I444
I443
tp4589
a(I443
I441
tp4590
a(I441
I442
tp4591
a(I442
I433
tp4592
a(I433
I434
tp4593
a(I434
I426
tp4594
a(I426
I428
tp4595
a(I428
I445
tp4596
aa(lp4597
(I340
I339
tp4598
a(I339
I330
tp4599
a(I330
I331
tp4600
a(I331
I325
tp4601
a(I325
I266
tp4602
a(I266
I273
tp4603
a(I273
I341
tp4604
a(I341
I342
tp4605
a(I342
I343
tp4606
a(I343
I344
tp4607
a(I344
I340
tp4608
aa(lp4609
(I850
I848
tp4610
a(I848
I847
tp4611
a(I847
I834
tp4612
a(I834
I838
tp4613
a(I838
I851
tp4614
a(I851
I700
tp4615
a(I700
I699
tp4616
a(I699
I841
tp4617
a(I841
I845
tp4618
a(I845
I849
tp4619
a(I849
I850
tp4620
aa(lp4621
(I524
I546
tp4622
a(I546
I535
tp4623
a(I535
I202
tp4624
a(I202
I213
tp4625
a(I213
I480
tp4626
a(I480
I491
tp4627
a(I491
I580
tp4628
a(I580
I569
tp4629
a(I569
I558
tp4630
a(I558
I513
tp4631
a(I513
I524
tp4632
aa(lp4633
(I1393
I1387
tp4634
a(I1387
I1388
tp4635
a(I1388
I1318
tp4636
a(I1318
I1322
tp4637
a(I1322
I1390
tp4638
a(I1390
I1389
tp4639
a(I1389
I801
tp4640
a(I801
I805
tp4641
a(I805
I1392
tp4642
a(I1392
I1391
tp4643
a(I1391
I1393
tp4644
aa(lp4645
(I1127
I1128
tp4646
a(I1128
I1126
tp4647
a(I1126
I1112
tp4648
a(I1112
I1125
tp4649
a(I1125
I1132
tp4650
a(I1132
I1133
tp4651
a(I1133
I1134
tp4652
a(I1134
I1135
tp4653
a(I1135
I1129
tp4654
a(I1129
I1131
tp4655
a(I1131
I1127
tp4656
aa(lp4657
(I1232
I1258
tp4658
a(I1258
I1266
tp4659
a(I1266
I1265
tp4660
a(I1265
I1259
tp4661
a(I1259
I1261
tp4662
a(I1261
I1267
tp4663
a(I1267
I1269
tp4664
a(I1269
I1270
tp4665
a(I1270
I1268
tp4666
a(I1268
I1235
tp4667
a(I1235
I1232
tp4668
aa(lp4669
(I1293
I1284
tp4670
a(I1284
I1285
tp4671
a(I1285
I1289
tp4672
a(I1289
I1291
tp4673
a(I1291
I1290
tp4674
a(I1290
I1195
tp4675
a(I1195
I1190
tp4676
a(I1190
I1182
tp4677
a(I1182
I1183
tp4678
a(I1183
I1292
tp4679
a(I1292
I1293
tp4680
aa(lp4681
(I1004
I1005
tp4682
a(I1005
I1003
tp4683
a(I1003
I1007
tp4684
a(I1007
I1006
tp4685
a(I1006
I907
tp4686
a(I907
I901
tp4687
a(I901
I889
tp4688
a(I889
I888
tp4689
a(I888
I1000
tp4690
a(I1000
I1002
tp4691
a(I1002
I1004
tp4692
aa(lp4693
(I530
I531
tp4694
a(I531
I357
tp4695
a(I357
I359
tp4696
a(I359
I354
tp4697
a(I354
I260
tp4698
a(I260
I253
tp4699
a(I253
I254
tp4700
a(I254
I526
tp4701
a(I526
I527
tp4702
a(I527
I529
tp4703
a(I529
I528
tp4704
a(I528
I530
tp4705
aa(lp4706
(I299
I298
tp4707
a(I298
I295
tp4708
a(I295
I294
tp4709
a(I294
I230
tp4710
a(I230
I228
tp4711
a(I228
I285
tp4712
a(I285
I286
tp4713
a(I286
I292
tp4714
a(I292
I293
tp4715
a(I293
I296
tp4716
a(I296
I297
tp4717
a(I297
I299
tp4718
aa(lp4719
(I1443
I1444
tp4720
a(I1444
I1450
tp4721
a(I1450
I1453
tp4722
a(I1453
I1438
tp4723
a(I1438
I1435
tp4724
a(I1435
I1431
tp4725
a(I1431
I1432
tp4726
a(I1432
I1457
tp4727
a(I1457
I1456
tp4728
a(I1456
I1455
tp4729
a(I1455
I1454
tp4730
a(I1454
I1443
tp4731
aa(lp4732
(I1101
I368
tp4733
a(I368
I1134
tp4734
a(I1134
I1133
tp4735
a(I1133
I356
tp4736
a(I356
I367
tp4737
a(I367
I706
tp4738
a(I706
I705
tp4739
a(I705
I1067
tp4740
a(I1067
I1093
tp4741
a(I1093
I1094
tp4742
a(I1094
I1095
tp4743
a(I1095
I1101
tp4744
aa(lp4745
(I881
I883
tp4746
a(I883
I882
tp4747
a(I882
I880
tp4748
a(I880
I879
tp4749
a(I879
I874
tp4750
a(I874
I876
tp4751
a(I876
I877
tp4752
a(I877
I878
tp4753
a(I878
I873
tp4754
a(I873
I867
tp4755
a(I867
I872
tp4756
a(I872
I881
tp4757
aa(lp4758
(I866
I858
tp4759
a(I858
I865
tp4760
a(I865
I868
tp4761
a(I868
I869
tp4762
a(I869
I870
tp4763
a(I870
I871
tp4764
a(I871
I872
tp4765
a(I872
I867
tp4766
a(I867
I849
tp4767
a(I849
I845
tp4768
a(I845
I846
tp4769
a(I846
I866
tp4770
aa(lp4771
(I112
I110
tp4772
a(I110
I109
tp4773
a(I109
I4
tp4774
a(I4
I5
tp4775
a(I5
I119
tp4776
a(I119
I120
tp4777
a(I120
I121
tp4778
a(I121
I118
tp4779
a(I118
I115
tp4780
a(I115
I117
tp4781
a(I117
I116
tp4782
a(I116
I112
tp4783
aa(lp4784
(I404
I405
tp4785
a(I405
I478
tp4786
a(I478
I481
tp4787
a(I481
I479
tp4788
a(I479
I482
tp4789
a(I482
I483
tp4790
a(I483
I484
tp4791
a(I484
I454
tp4792
a(I454
I453
tp4793
a(I453
I475
tp4794
a(I475
I485
tp4795
a(I485
I404
tp4796
aa(lp4797
(I194
I195
tp4798
a(I195
I192
tp4799
a(I192
I193
tp4800
a(I193
I188
tp4801
a(I188
I190
tp4802
a(I190
I189
tp4803
a(I189
I186
tp4804
a(I186
I1509
tp4805
a(I1509
I1499
tp4806
a(I1499
I1500
tp4807
a(I1500
I187
tp4808
a(I187
I194
tp4809
aa(lp4810
(I197
I199
tp4811
a(I199
I201
tp4812
a(I201
I203
tp4813
a(I203
I200
tp4814
a(I200
I205
tp4815
a(I205
I204
tp4816
a(I204
I187
tp4817
a(I187
I1500
tp4818
a(I1500
I1501
tp4819
a(I1501
I1551
tp4820
a(I1551
I1550
tp4821
a(I1550
I197
tp4822
aa(lp4823
(I367
I366
tp4824
a(I366
I621
tp4825
a(I621
I622
tp4826
a(I622
I584
tp4827
a(I584
I672
tp4828
a(I672
I671
tp4829
a(I671
I674
tp4830
a(I674
I677
tp4831
a(I677
I679
tp4832
a(I679
I691
tp4833
a(I691
I706
tp4834
a(I706
I367
tp4835
aa(lp4836
(I1554
I1555
tp4837
a(I1555
I237
tp4838
a(I237
I233
tp4839
a(I233
I328
tp4840
a(I328
I333
tp4841
a(I333
I332
tp4842
a(I332
I337
tp4843
a(I337
I334
tp4844
a(I334
I338
tp4845
a(I338
I331
tp4846
a(I331
I330
tp4847
a(I330
I1554
tp4848
aa(lp4849
(I948
I951
tp4850
a(I951
I963
tp4851
a(I963
I966
tp4852
a(I966
I965
tp4853
a(I965
I967
tp4854
a(I967
I962
tp4855
a(I962
I922
tp4856
a(I922
I923
tp4857
a(I923
I961
tp4858
a(I961
I927
tp4859
a(I927
I926
tp4860
a(I926
I948
tp4861
aa(lp4862
(I133
I83
tp4863
a(I83
I82
tp4864
a(I82
I107
tp4865
a(I107
I128
tp4866
a(I128
I129
tp4867
a(I129
I131
tp4868
a(I131
I132
tp4869
a(I132
I130
tp4870
a(I130
I123
tp4871
a(I123
I112
tp4872
a(I112
I116
tp4873
a(I116
I133
tp4874
aa(lp4875
(I324
I336
tp4876
a(I336
I291
tp4877
a(I291
I91
tp4878
a(I91
I114
tp4879
a(I114
I280
tp4880
a(I280
I58
tp4881
a(I58
I36
tp4882
a(I36
I1563
tp4883
a(I1563
I1574
tp4884
a(I1574
I302
tp4885
a(I302
I313
tp4886
a(I313
I324
tp4887
aa(lp4888
(I1472
I1469
tp4889
a(I1469
I1470
tp4890
a(I1470
I1471
tp4891
a(I1471
I1468
tp4892
a(I1468
I1466
tp4893
a(I1466
I1467
tp4894
a(I1467
I1447
tp4895
a(I1447
I1446
tp4896
a(I1446
I1458
tp4897
a(I1458
I1459
tp4898
a(I1459
I1473
tp4899
a(I1473
I1472
tp4900
aa(lp4901
(I1448
I1449
tp4902
a(I1449
I1409
tp4903
a(I1409
I1405
tp4904
a(I1405
I1423
tp4905
a(I1423
I1440
tp4906
a(I1440
I1442
tp4907
a(I1442
I1445
tp4908
a(I1445
I1444
tp4909
a(I1444
I1443
tp4910
a(I1443
I1446
tp4911
a(I1446
I1447
tp4912
a(I1447
I1448
tp4913
aa(lp4914
(I942
I842
tp4915
a(I842
I1042
tp4916
a(I1042
I658
tp4917
a(I658
I656
tp4918
a(I656
I655
tp4919
a(I655
I651
tp4920
a(I651
I930
tp4921
a(I930
I708
tp4922
a(I708
I820
tp4923
a(I820
I964
tp4924
a(I964
I953
tp4925
a(I953
I942
tp4926
aa(lp4927
(I922
I924
tp4928
a(I924
I921
tp4929
a(I921
I920
tp4930
a(I920
I894
tp4931
a(I894
I898
tp4932
a(I898
I917
tp4933
a(I917
I903
tp4934
a(I903
I904
tp4935
a(I904
I912
tp4936
a(I912
I914
tp4937
a(I914
I918
tp4938
a(I918
I923
tp4939
a(I923
I922
tp4940
aa(lp4941
(I310
I304
tp4942
a(I304
I308
tp4943
a(I308
I311
tp4944
a(I311
I312
tp4945
a(I312
I262
tp4946
a(I262
I265
tp4947
a(I265
I314
tp4948
a(I314
I231
tp4949
a(I231
I232
tp4950
a(I232
I294
tp4951
a(I294
I295
tp4952
a(I295
I309
tp4953
a(I309
I310
tp4954
aa(lp4955
(I212
I215
tp4956
a(I215
I200
tp4957
a(I200
I203
tp4958
a(I203
I211
tp4959
a(I211
I208
tp4960
a(I208
I209
tp4961
a(I209
I210
tp4962
a(I210
I206
tp4963
a(I206
I207
tp4964
a(I207
I188
tp4965
a(I188
I193
tp4966
a(I193
I214
tp4967
a(I214
I212
tp4968
aa(lp4969
(I1525
I1526
tp4970
a(I1526
I1527
tp4971
a(I1527
I1524
tp4972
a(I1524
I1521
tp4973
a(I1521
I1522
tp4974
a(I1522
I1523
tp4975
a(I1523
I1518
tp4976
a(I1518
I1520
tp4977
a(I1520
I1516
tp4978
a(I1516
I1517
tp4979
a(I1517
I1513
tp4980
a(I1513
I1515
tp4981
a(I1515
I1525
tp4982
aa(lp4983
(I792
I789
tp4984
a(I789
I790
tp4985
a(I790
I787
tp4986
a(I787
I788
tp4987
a(I788
I785
tp4988
a(I785
I783
tp4989
a(I783
I784
tp4990
a(I784
I782
tp4991
a(I782
I781
tp4992
a(I781
I779
tp4993
a(I779
I780
tp4994
a(I780
I791
tp4995
a(I791
I792
tp4996
aa(lp4997
(I672
I584
tp4998
a(I584
I585
tp4999
a(I585
I583
tp5000
a(I583
I573
tp5001
a(I573
I579
tp5002
a(I579
I1452
tp5003
a(I1452
I1441
tp5004
a(I1441
I269
tp5005
a(I269
I258
tp5006
a(I258
I646
tp5007
a(I646
I635
tp5008
a(I635
I668
tp5009
a(I668
I672
tp5010
aa(lp5011
(I1325
I1317
tp5012
a(I1317
I1320
tp5013
a(I1320
I1334
tp5014
a(I1334
I1156
tp5015
a(I1156
I1158
tp5016
a(I1158
I1329
tp5017
a(I1329
I1331
tp5018
a(I1331
I1332
tp5019
a(I1332
I1333
tp5020
a(I1333
I1328
tp5021
a(I1328
I830
tp5022
a(I830
I829
tp5023
a(I829
I1325
tp5024
aa(lp5025
(I41
I44
tp5026
a(I44
I45
tp5027
a(I45
I43
tp5028
a(I43
I46
tp5029
a(I46
I1544
tp5030
a(I1544
I1543
tp5031
a(I1543
I34
tp5032
a(I34
I37
tp5033
a(I37
I39
tp5034
a(I39
I38
tp5035
a(I38
I40
tp5036
a(I40
I42
tp5037
a(I42
I41
tp5038
aa(lp5039
(I1055
I1057
tp5040
a(I1057
I1056
tp5041
a(I1056
I1061
tp5042
a(I1061
I1060
tp5043
a(I1060
I1059
tp5044
a(I1059
I1062
tp5045
a(I1062
I1058
tp5046
a(I1058
I704
tp5047
a(I704
I703
tp5048
a(I703
I1047
tp5049
a(I1047
I1052
tp5050
a(I1052
I1054
tp5051
a(I1054
I1055
tp5052
aa(lp5053
(I541
I542
tp5054
a(I542
I545
tp5055
a(I545
I547
tp5056
a(I547
I544
tp5057
a(I544
I543
tp5058
a(I543
I540
tp5059
a(I540
I530
tp5060
a(I530
I528
tp5061
a(I528
I539
tp5062
a(I539
I1457
tp5063
a(I1457
I1432
tp5064
a(I1432
I1433
tp5065
a(I1433
I541
tp5066
aa(lp5067
(I1539
I1524
tp5068
a(I1524
I1527
tp5069
a(I1527
I1543
tp5070
a(I1543
I1544
tp5071
a(I1544
I1545
tp5072
a(I1545
I1546
tp5073
a(I1546
I1547
tp5074
a(I1547
I1542
tp5075
a(I1542
I1514
tp5076
a(I1514
I1505
tp5077
a(I1505
I1506
tp5078
a(I1506
I1540
tp5079
a(I1540
I1539
tp5080
aa(lp5081
(I424
I402
tp5082
a(I402
I469
tp5083
a(I469
I391
tp5084
a(I391
I380
tp5085
a(I380
I169
tp5086
a(I169
I158
tp5087
a(I158
I291
tp5088
a(I291
I336
tp5089
a(I336
I413
tp5090
a(I413
I447
tp5091
a(I447
I458
tp5092
a(I458
I435
tp5093
a(I435
I424
tp5094
aa(lp5095
(I543
I544
tp5096
a(I544
I572
tp5097
a(I572
I560
tp5098
a(I560
I570
tp5099
a(I570
I576
tp5100
a(I576
I577
tp5101
a(I577
I578
tp5102
a(I578
I579
tp5103
a(I579
I573
tp5104
a(I573
I574
tp5105
a(I574
I575
tp5106
a(I575
I549
tp5107
a(I549
I543
tp5108
aa(lp5109
(I948
I944
tp5110
a(I944
I946
tp5111
a(I946
I945
tp5112
a(I945
I947
tp5113
a(I947
I940
tp5114
a(I940
I921
tp5115
a(I921
I924
tp5116
a(I924
I949
tp5117
a(I949
I950
tp5118
a(I950
I952
tp5119
a(I952
I954
tp5120
a(I954
I951
tp5121
a(I951
I948
tp5122
aa(lp5123
(I1132
I1125
tp5124
a(I1125
I1124
tp5125
a(I1124
I1548
tp5126
a(I1548
I1549
tp5127
a(I1549
I1550
tp5128
a(I1550
I1551
tp5129
a(I1551
I1553
tp5130
a(I1553
I1556
tp5131
a(I1556
I1555
tp5132
a(I1555
I1554
tp5133
a(I1554
I1557
tp5134
a(I1557
I1558
tp5135
a(I1558
I1132
tp5136
aa(lp5137
(I1499
I1494
tp5138
a(I1494
I1495
tp5139
a(I1495
I1496
tp5140
a(I1496
I1498
tp5141
a(I1498
I1488
tp5142
a(I1488
I1483
tp5143
a(I1483
I1487
tp5144
a(I1487
I1502
tp5145
a(I1502
I1504
tp5146
a(I1504
I1503
tp5147
a(I1503
I1501
tp5148
a(I1501
I1500
tp5149
a(I1500
I1499
tp5150
aa(lp5151
(I364
I363
tp5152
a(I363
I366
tp5153
a(I366
I367
tp5154
a(I367
I356
tp5155
a(I356
I1558
tp5156
a(I1558
I1557
tp5157
a(I1557
I355
tp5158
a(I355
I359
tp5159
a(I359
I357
tp5160
a(I357
I361
tp5161
a(I361
I360
tp5162
a(I360
I362
tp5163
a(I362
I365
tp5164
a(I365
I364
tp5165
aa(lp5166
(I446
I1041
tp5167
a(I1041
I1152
tp5168
a(I1152
I1374
tp5169
a(I1374
I1263
tp5170
a(I1263
I0
tp5171
a(I0
I819
tp5172
a(I819
I664
tp5173
a(I664
I557
tp5174
a(I557
I1485
tp5175
a(I1485
I2
tp5176
a(I2
I113
tp5177
a(I113
I224
tp5178
a(I224
I335
tp5179
a(I335
I446
tp5180
aa(lp5181
(I264
I263
tp5182
a(I263
I261
tp5183
a(I261
I255
tp5184
a(I255
I257
tp5185
a(I257
I267
tp5186
a(I267
I270
tp5187
a(I270
I268
tp5188
a(I268
I271
tp5189
a(I271
I272
tp5190
a(I272
I273
tp5191
a(I273
I266
tp5192
a(I266
I265
tp5193
a(I265
I262
tp5194
a(I262
I264
tp5195
aa(lp5196
(I180
I213
tp5197
a(I213
I202
tp5198
a(I202
I236
tp5199
a(I236
I247
tp5200
a(I247
I225
tp5201
a(I225
I258
tp5202
a(I258
I269
tp5203
a(I269
I147
tp5204
a(I147
I80
tp5205
a(I80
I136
tp5206
a(I136
I158
tp5207
a(I158
I169
tp5208
a(I169
I191
tp5209
a(I191
I180
tp5210
aa(lp5211
(I1169
I1177
tp5212
a(I1177
I1172
tp5213
a(I1172
I1174
tp5214
a(I1174
I1173
tp5215
a(I1173
I1176
tp5216
a(I1176
I1171
tp5217
a(I1171
I1170
tp5218
a(I1170
I1167
tp5219
a(I1167
I1168
tp5220
a(I1168
I1149
tp5221
a(I1149
I1154
tp5222
a(I1154
I1178
tp5223
a(I1178
I1179
tp5224
a(I1179
I1169
tp5225
aa(lp5226
(I627
I626
tp5227
a(I626
I623
tp5228
a(I623
I625
tp5229
a(I625
I555
tp5230
a(I555
I556
tp5231
a(I556
I789
tp5232
a(I789
I792
tp5233
a(I792
I628
tp5234
a(I628
I629
tp5235
a(I629
I1485
tp5236
a(I1485
I557
tp5237
a(I557
I562
tp5238
a(I562
I566
tp5239
a(I566
I627
tp5240
aa(lp5241
(I469
I680
tp5242
a(I680
I682
tp5243
a(I682
I681
tp5244
a(I681
I684
tp5245
a(I684
I685
tp5246
a(I685
I683
tp5247
a(I683
I688
tp5248
a(I688
I687
tp5249
a(I687
I689
tp5250
a(I689
I690
tp5251
a(I690
I678
tp5252
a(I678
I502
tp5253
a(I502
I391
tp5254
a(I391
I469
tp5255
aa(lp5256
(I753
I1486
tp5257
a(I1486
I1508
tp5258
a(I1508
I1497
tp5259
a(I1497
I1519
tp5260
a(I1519
I1530
tp5261
a(I1530
I1541
tp5262
a(I1541
I1552
tp5263
a(I1552
I1474
tp5264
a(I1474
I1463
tp5265
a(I1463
I864
tp5266
a(I864
I786
tp5267
a(I786
I764
tp5268
a(I764
I742
tp5269
a(I742
I753
tp5270
aa(lp5271
(I942
I831
tp5272
a(I831
I797
tp5273
a(I797
I775
tp5274
a(I775
I786
tp5275
a(I786
I864
tp5276
a(I864
I875
tp5277
a(I875
I908
tp5278
a(I908
I897
tp5279
a(I897
I886
tp5280
a(I886
I931
tp5281
a(I931
I919
tp5282
a(I919
I853
tp5283
a(I853
I842
tp5284
a(I842
I942
tp5285
aa(lp5286
(I604
I605
tp5287
a(I605
I600
tp5288
a(I600
I606
tp5289
a(I606
I362
tp5290
a(I362
I360
tp5291
a(I360
I553
tp5292
a(I553
I592
tp5293
a(I592
I596
tp5294
a(I596
I598
tp5295
a(I598
I599
tp5296
a(I599
I597
tp5297
a(I597
I601
tp5298
a(I601
I603
tp5299
a(I603
I604
tp5300
aa(lp5301
(I827
I828
tp5302
a(I828
I825
tp5303
a(I825
I826
tp5304
a(I826
I824
tp5305
a(I824
I822
tp5306
a(I822
I823
tp5307
a(I823
I693
tp5308
a(I693
I692
tp5309
a(I692
I814
tp5310
a(I814
I817
tp5311
a(I817
I829
tp5312
a(I829
I830
tp5313
a(I830
I833
tp5314
a(I833
I832
tp5315
a(I832
I827
tp5316
aa(lp5317
(I785
I810
tp5318
a(I810
I804
tp5319
a(I804
I806
tp5320
a(I806
I805
tp5321
a(I805
I801
tp5322
a(I801
I803
tp5323
a(I803
I802
tp5324
a(I802
I800
tp5325
a(I800
I799
tp5326
a(I799
I793
tp5327
a(I793
I798
tp5328
a(I798
I809
tp5329
a(I809
I807
tp5330
a(I807
I783
tp5331
a(I783
I785
tp5332
aa(lp5333
(I1474
I1552
tp5334
a(I1552
I738
tp5335
a(I738
I739
tp5336
a(I739
I740
tp5337
a(I740
I741
tp5338
a(I741
I680
tp5339
a(I680
I469
tp5340
a(I469
I402
tp5341
a(I402
I714
tp5342
a(I714
I715
tp5343
a(I715
I737
tp5344
a(I737
I707
tp5345
a(I707
I712
tp5346
a(I712
I1585
tp5347
a(I1585
I1474
tp5348
aa(lp5349
(I564
I565
tp5350
a(I565
I566
tp5351
a(I566
I562
tp5352
a(I562
I567
tp5353
a(I567
I568
tp5354
a(I568
I571
tp5355
a(I571
I570
tp5356
a(I570
I560
tp5357
a(I560
I561
tp5358
a(I561
I542
tp5359
a(I542
I541
tp5360
a(I541
I554
tp5361
a(I554
I559
tp5362
a(I559
I563
tp5363
a(I563
I564
tp5364
aa(lp5365
(I1164
I1397
tp5366
a(I1397
I1408
tp5367
a(I1408
I1130
tp5368
a(I1130
I1086
tp5369
a(I1086
I1452
tp5370
a(I1452
I579
tp5371
a(I579
I578
tp5372
a(I578
I663
tp5373
a(I663
I661
tp5374
a(I661
I658
tp5375
a(I658
I1042
tp5376
a(I1042
I1030
tp5377
a(I1030
I1230
tp5378
a(I1230
I1219
tp5379
a(I1219
I1175
tp5380
a(I1175
I1164
tp5381
aa(lp5382
(I1117
I1114
tp5383
a(I1114
I1118
tp5384
a(I1118
I1120
tp5385
a(I1120
I1121
tp5386
a(I1121
I1122
tp5387
a(I1122
I1123
tp5388
a(I1123
I1124
tp5389
a(I1124
I1125
tp5390
a(I1125
I1112
tp5391
a(I1112
I1110
tp5392
a(I1110
I1103
tp5393
a(I1103
I1109
tp5394
a(I1109
I1113
tp5395
a(I1113
I1115
tp5396
a(I1115
I1116
tp5397
a(I1116
I1117
tp5398
aa(lp5399
(I936
I935
tp5400
a(I935
I934
tp5401
a(I934
I932
tp5402
a(I932
I933
tp5403
a(I933
I929
tp5404
a(I929
I925
tp5405
a(I925
I926
tp5406
a(I926
I927
tp5407
a(I927
I928
tp5408
a(I928
I918
tp5409
a(I918
I914
tp5410
a(I914
I915
tp5411
a(I915
I937
tp5412
a(I937
I938
tp5413
a(I938
I939
tp5414
a(I939
I936
tp5415
aa(lp5416
(I1229
I1209
tp5417
a(I1209
I1203
tp5418
a(I1203
I1202
tp5419
a(I1202
I1212
tp5420
a(I1212
I1238
tp5421
a(I1238
I1239
tp5422
a(I1239
I1240
tp5423
a(I1240
I1228
tp5424
a(I1228
I1233
tp5425
a(I1233
I1232
tp5426
a(I1232
I1235
tp5427
a(I1235
I1236
tp5428
a(I1236
I1237
tp5429
a(I1237
I1234
tp5430
a(I1234
I1231
tp5431
a(I1231
I1229
tp5432
aa(lp5433
(I1159
I1161
tp5434
a(I1161
I1369
tp5435
a(I1369
I1365
tp5436
a(I1365
I1366
tp5437
a(I1366
I1357
tp5438
a(I1357
I1364
tp5439
a(I1364
I1370
tp5440
a(I1370
I1354
tp5441
a(I1354
I1348
tp5442
a(I1348
I1343
tp5443
a(I1343
I1345
tp5444
a(I1345
I1371
tp5445
a(I1371
I1372
tp5446
a(I1372
I1376
tp5447
a(I1376
I1373
tp5448
a(I1373
I1159
tp5449
aa(lp5450
(I1414
I1313
tp5451
a(I1313
I1166
tp5452
a(I1166
I1165
tp5453
a(I1165
I1402
tp5454
a(I1402
I1404
tp5455
a(I1404
I1403
tp5456
a(I1403
I1387
tp5457
a(I1387
I1393
tp5458
a(I1393
I1406
tp5459
a(I1406
I1407
tp5460
a(I1407
I1405
tp5461
a(I1405
I1409
tp5462
a(I1409
I1411
tp5463
a(I1411
I1412
tp5464
a(I1412
I1410
tp5465
a(I1410
I1413
tp5466
a(I1413
I1414
tp5467
aa(lp5468
(I237
I238
tp5469
a(I238
I1553
tp5470
a(I1553
I1551
tp5471
a(I1551
I1501
tp5472
a(I1501
I1503
tp5473
a(I1503
I226
tp5474
a(I226
I223
tp5475
a(I223
I227
tp5476
a(I227
I229
tp5477
a(I229
I228
tp5478
a(I228
I230
tp5479
a(I230
I232
tp5480
a(I232
I231
tp5481
a(I231
I234
tp5482
a(I234
I235
tp5483
a(I235
I233
tp5484
a(I233
I237
tp5485
aa(lp5486
(I71
I65
tp5487
a(I65
I66
tp5488
a(I66
I79
tp5489
a(I79
I81
tp5490
a(I81
I82
tp5491
a(I82
I83
tp5492
a(I83
I84
tp5493
a(I84
I85
tp5494
a(I85
I86
tp5495
a(I86
I78
tp5496
a(I78
I77
tp5497
a(I77
I76
tp5498
a(I76
I75
tp5499
a(I75
I74
tp5500
a(I74
I73
tp5501
a(I73
I72
tp5502
a(I72
I71
tp5503
aa(lp5504
(I375
I376
tp5505
a(I376
I395
tp5506
a(I395
I394
tp5507
a(I394
I393
tp5508
a(I393
I378
tp5509
a(I378
I379
tp5510
a(I379
I381
tp5511
a(I381
I384
tp5512
a(I384
I385
tp5513
a(I385
I383
tp5514
a(I383
I382
tp5515
a(I382
I386
tp5516
a(I386
I388
tp5517
a(I388
I387
tp5518
a(I387
I389
tp5519
a(I389
I390
tp5520
a(I390
I392
tp5521
a(I392
I375
tp5522
aa(lp5523
(I1162
I1161
tp5524
a(I1161
I1159
tp5525
a(I1159
I1163
tp5526
a(I1163
I1158
tp5527
a(I1158
I1156
tp5528
a(I1156
I1165
tp5529
a(I1165
I1166
tp5530
a(I1166
I1155
tp5531
a(I1155
I1154
tp5532
a(I1154
I1149
tp5533
a(I1149
I1150
tp5534
a(I1150
I1151
tp5535
a(I1151
I1146
tp5536
a(I1146
I1070
tp5537
a(I1070
I1049
tp5538
a(I1049
I1050
tp5539
a(I1050
I827
tp5540
a(I827
I832
tp5541
a(I832
I1157
tp5542
a(I1157
I1160
tp5543
a(I1160
I1162
tp5544
aa(lp5545
(I408
I407
tp5546
a(I407
I410
tp5547
a(I410
I412
tp5548
a(I412
I411
tp5549
a(I411
I409
tp5550
a(I409
I414
tp5551
a(I414
I372
tp5552
a(I372
I371
tp5553
a(I371
I375
tp5554
a(I375
I392
tp5555
a(I392
I398
tp5556
a(I398
I399
tp5557
a(I399
I397
tp5558
a(I397
I396
tp5559
a(I396
I401
tp5560
a(I401
I403
tp5561
a(I403
I400
tp5562
a(I400
I406
tp5563
a(I406
I405
tp5564
a(I405
I404
tp5565
a(I404
I408
tp5566
aa(lp5567
(I1207
I1216
tp5568
a(I1216
I1215
tp5569
a(I1215
I1214
tp5570
a(I1214
I1217
tp5571
a(I1217
I1218
tp5572
a(I1218
I1220
tp5573
a(I1220
I1221
tp5574
a(I1221
I1222
tp5575
a(I1222
I1224
tp5576
a(I1224
I1223
tp5577
a(I1223
I1225
tp5578
a(I1225
I1169
tp5579
a(I1169
I1179
tp5580
a(I1179
I1227
tp5581
a(I1227
I1226
tp5582
a(I1226
I1114
tp5583
a(I1114
I1117
tp5584
a(I1117
I1213
tp5585
a(I1213
I1212
tp5586
a(I1212
I1202
tp5587
a(I1202
I1207
tp5588
aa.