(lp0
(lp1
(I17
I18
tp2
a(I18
I20
tp3
a(I20
I19
tp4
a(I19
I17
tp5
aa(lp6
(I7
I3
tp7
a(I3
I2
tp8
a(I2
I1
tp9
a(I1
I6
tp10
a(I6
I7
tp11
aa(lp12
(I7
I8
tp13
a(I8
I15
tp14
a(I15
I11
tp15
a(I11
I3
tp16
a(I3
I7
tp17
aa(lp18
(I15
I13
tp19
a(I13
I14
tp20
a(I14
I16
tp21
a(I16
I11
tp22
a(I11
I15
tp23
aa(lp24
(I5
I6
tp25
a(I6
I1
tp26
a(I1
I0
tp27
a(I0
I4
tp28
a(I4
I5
tp29
aa(lp30
(I13
I15
tp31
a(I15
I8
tp32
a(I8
I10
tp33
a(I10
I12
tp34
a(I12
I13
tp35
aa(lp36
(I14
I13
tp37
a(I13
I12
tp38
a(I12
I17
tp39
a(I17
I19
tp40
a(I19
I14
tp41
aa(lp42
(I0
I1
tp43
a(I1
I2
tp44
a(I2
I23
tp45
a(I23
I24
tp46
a(I24
I0
tp47
aa(lp48
(I5
I4
tp49
a(I4
I26
tp50
a(I26
I27
tp51
a(I27
I9
tp52
a(I9
I5
tp53
aa(lp54
(I21
I26
tp55
a(I26
I4
tp56
a(I4
I0
tp57
a(I0
I24
tp58
a(I24
I21
tp59
aa(lp60
(I22
I21
tp61
a(I21
I24
tp62
a(I24
I23
tp63
a(I23
I25
tp64
a(I25
I22
tp65
aa(lp66
(I27
I26
tp67
a(I26
I21
tp68
a(I21
I22
tp69
a(I22
I20
tp70
a(I20
I18
tp71
a(I18
I27
tp72
aa(lp73
(I8
I7
tp74
a(I7
I6
tp75
a(I6
I5
tp76
a(I5
I9
tp77
a(I9
I10
tp78
a(I10
I8
tp79
aa(lp80
(I23
I2
tp81
a(I2
I3
tp82
a(I3
I11
tp83
a(I11
I16
tp84
a(I16
I25
tp85
a(I25
I23
tp86
aa(lp87
(I25
I16
tp88
a(I16
I14
tp89
a(I14
I19
tp90
a(I19
I20
tp91
a(I20
I22
tp92
a(I22
I25
tp93
aa(lp94
(I9
I27
tp95
a(I27
I18
tp96
a(I18
I17
tp97
a(I17
I12
tp98
a(I12
I10
tp99
a(I10
I9
tp100
aa.