(lp0
(lp1
(I1361
I1355
tp2
a(I1355
I82
tp3
a(I82
I1361
tp4
aa(lp5
(I1260
I1265
tp6
a(I1265
I1262
tp7
a(I1262
I1260
tp8
aa(lp9
(I393
I387
tp10
a(I387
I377
tp11
a(I377
I393
tp12
aa(lp13
(I906
I893
tp14
a(I893
I892
tp15
a(I892
I906
tp16
aa(lp17
(I969
I1164
tp18
a(I1164
I970
tp19
a(I970
I969
tp20
aa(lp21
(I1158
I1156
tp22
a(I1156
I1154
tp23
a(I1154
I1158
tp24
aa(lp25
(I807
I806
tp26
a(I806
I803
tp27
a(I803
I807
tp28
aa(lp29
(I1199
I1269
tp30
a(I1269
I1200
tp31
a(I1200
I1199
tp32
aa(lp33
(I1169
I1177
tp34
a(I1177
I1172
tp35
a(I1172
I1169
tp36
aa(lp37
(I662
I660
tp38
a(I660
I834
tp39
a(I834
I662
tp40
aa(lp41
(I223
I221
tp42
a(I221
I226
tp43
a(I226
I223
tp44
aa(lp45
(I739
I734
tp46
a(I734
I754
tp47
a(I754
I739
tp48
aa(lp49
(I578
I576
tp50
a(I576
I590
tp51
a(I590
I578
tp52
aa(lp53
(I105
I104
tp54
a(I104
I107
tp55
a(I107
I105
tp56
aa(lp57
(I1168
I1014
tp58
a(I1014
I1012
tp59
a(I1012
I1168
tp60
aa(lp61
(I98
I97
tp62
a(I97
I96
tp63
a(I96
I98
tp64
aa(lp65
(I976
I972
tp66
a(I972
I1192
tp67
a(I1192
I976
tp68
aa(lp69
(I407
I404
tp70
a(I404
I427
tp71
a(I427
I407
tp72
aa(lp73
(I47
I25
tp74
a(I25
I80
tp75
a(I80
I47
tp76
aa(lp77
(I935
I942
tp78
a(I942
I937
tp79
a(I937
I935
tp80
aa(lp81
(I1225
I1224
tp82
a(I1224
I1251
tp83
a(I1251
I1225
tp84
aa(lp85
(I413
I459
tp86
a(I459
I424
tp87
a(I424
I413
tp88
aa(lp89
(I814
I648
tp90
a(I648
I647
tp91
a(I647
I814
tp92
aa(lp93
(I924
I1240
tp94
a(I1240
I926
tp95
a(I926
I924
tp96
aa(lp97
(I27
I45
tp98
a(I45
I31
tp99
a(I31
I27
tp100
aa(lp101
(I1250
I1249
tp102
a(I1249
I1248
tp103
a(I1248
I1250
tp104
aa(lp105
(I504
I570
tp106
a(I570
I505
tp107
a(I505
I504
tp108
aa(lp109
(I646
I606
tp110
a(I606
I605
tp111
a(I605
I646
tp112
aa(lp113
(I1282
I1291
tp114
a(I1291
I1283
tp115
a(I1283
I1282
tp116
aa(lp117
(I1136
I1120
tp118
a(I1120
I1117
tp119
a(I1117
I1136
tp120
aa(lp121
(I1245
I1229
tp122
a(I1229
I1227
tp123
a(I1227
I1245
tp124
aa(lp125
(I467
I466
tp126
a(I466
I600
tp127
a(I600
I467
tp128
aa(lp129
(I396
I394
tp130
a(I394
I399
tp131
a(I399
I396
tp132
aa(lp133
(I805
I802
tp134
a(I802
I800
tp135
a(I800
I805
tp136
aa(lp137
(I737
I758
tp138
a(I758
I738
tp139
a(I738
I737
tp140
aa(lp141
(I1285
I1174
tp142
a(I1174
I453
tp143
a(I453
I1285
tp144
aa(lp145
(I1021
I1020
tp146
a(I1020
I1142
tp147
a(I1142
I1021
tp148
aa(lp149
(I952
I508
tp150
a(I508
I0
tp151
a(I0
I952
tp152
aa(lp153
(I43
I1380
tp154
a(I1380
I1379
tp155
a(I1379
I43
tp156
aa(lp157
(I1331
I59
tp158
a(I59
I1332
tp159
a(I1332
I1331
tp160
aa(lp161
(I530
I536
tp162
a(I536
I532
tp163
a(I532
I530
tp164
aa(lp165
(I292
I246
tp166
a(I246
I244
tp167
a(I244
I292
tp168
aa(lp169
(I247
I1208
tp170
a(I1208
I1197
tp171
a(I1197
I247
tp172
aa(lp173
(I40
I48
tp174
a(I48
I41
tp175
a(I41
I40
tp176
aa(lp177
(I1201
I978
tp178
a(I978
I973
tp179
a(I973
I1201
tp180
aa(lp181
(I1181
I1190
tp182
a(I1190
I1184
tp183
a(I1184
I1181
tp184
aa(lp185
(I688
I700
tp186
a(I700
I696
tp187
a(I696
I688
tp188
aa(lp189
(I592
I588
tp190
a(I588
I587
tp191
a(I587
I592
tp192
aa(lp193
(I1369
I1368
tp194
a(I1368
I56
tp195
a(I56
I1369
tp196
aa(lp197
(I1031
I1028
tp198
a(I1028
I1109
tp199
a(I1109
I1031
tp200
aa(lp201
(I307
I322
tp202
a(I322
I308
tp203
a(I308
I307
tp204
aa(lp205
(I35
I34
tp206
a(I34
I54
tp207
a(I54
I35
tp208
aa(lp209
(I1254
I1253
tp210
a(I1253
I1255
tp211
a(I1255
I1254
tp212
aa(lp213
(I1095
I1107
tp214
a(I1107
I1098
tp215
a(I1098
I1095
tp216
aa(lp217
(I1129
I1127
tp218
a(I1127
I1137
tp219
a(I1137
I1129
tp220
aa(lp221
(I290
I289
tp222
a(I289
I288
tp223
a(I288
I290
tp224
aa(lp225
(I1112
I1114
tp226
a(I1114
I1113
tp227
a(I1113
I1112
tp228
aa(lp229
(I1069
I1057
tp230
a(I1057
I1056
tp231
a(I1056
I1069
tp232
aa(lp233
(I694
I713
tp234
a(I713
I695
tp235
a(I695
I694
tp236
aa(lp237
(I429
I438
tp238
a(I438
I430
tp239
a(I430
I429
tp240
aa(lp241
(I1206
I1205
tp242
a(I1205
I1207
tp243
a(I1207
I1206
tp244
aa(lp245
(I673
I709
tp246
a(I709
I676
tp247
a(I676
I673
tp248
aa(lp249
(I828
I824
tp250
a(I824
I823
tp251
a(I823
I828
tp252
aa(lp253
(I1133
I1132
tp254
a(I1132
I1140
tp255
a(I1140
I1133
tp256
aa(lp257
(I397
I420
tp258
a(I420
I398
tp259
a(I398
I397
tp260
aa(lp261
(I90
I93
tp262
a(I93
I92
tp263
a(I92
I90
tp264
aa(lp265
(I151
I149
tp266
a(I149
I356
tp267
a(I356
I151
tp268
aa(lp269
(I16
I1390
tp270
a(I1390
I1389
tp271
a(I1389
I16
tp272
aa(lp273
(I1300
I1298
tp274
a(I1298
I1296
tp275
a(I1296
I1300
tp276
aa(lp277
(I1222
I1221
tp278
a(I1221
I1231
tp279
a(I1231
I1222
tp280
aa(lp281
(I374
I373
tp282
a(I373
I372
tp283
a(I372
I374
tp284
aa(lp285
(I1152
I1086
tp286
a(I1086
I986
tp287
a(I986
I1152
tp288
aa(lp289
(I731
I608
tp290
a(I608
I597
tp291
a(I597
I731
tp292
aa(lp293
(I310
I317
tp294
a(I317
I311
tp295
a(I311
I310
tp296
aa(lp297
(I887
I884
tp298
a(I884
I1264
tp299
a(I1264
I887
tp300
aa(lp301
(I927
I1242
tp302
a(I1242
I928
tp303
a(I928
I927
tp304
aa(lp305
(I550
I549
tp306
a(I549
I557
tp307
a(I557
I550
tp308
aa(lp309
(I747
I732
tp310
a(I732
I729
tp311
a(I729
I747
tp312
aa(lp313
(I515
I514
tp314
a(I514
I535
tp315
a(I535
I515
tp316
aa(lp317
(I415
I408
tp318
a(I408
I441
tp319
a(I441
I415
tp320
aa(lp321
(I469
I480
tp322
a(I480
I471
tp323
a(I471
I469
tp324
aa(lp325
(I431
I410
tp326
a(I410
I409
tp327
a(I409
I431
tp328
aa(lp329
(I913
I938
tp330
a(I938
I914
tp331
a(I914
I913
tp332
aa(lp333
(I897
I819
tp334
a(I819
I797
tp335
a(I797
I897
tp336
aa(lp337
(I347
I445
tp338
a(I445
I369
tp339
a(I369
I347
tp340
aa(lp341
(I1121
I1080
tp342
a(I1080
I1079
tp343
a(I1079
I1121
tp344
aa(lp345
(I367
I350
tp346
a(I350
I348
tp347
a(I348
I367
tp348
aa(lp349
(I1193
I1187
tp350
a(I1187
I1185
tp351
a(I1185
I1193
tp352
aa(lp353
(I635
I633
tp354
a(I633
I645
tp355
a(I645
I635
tp356
aa(lp357
(I886
I786
tp358
a(I786
I753
tp359
a(I753
I886
tp360
aa(lp361
(I436
I386
tp362
a(I386
I382
tp363
a(I382
I436
tp364
aa(lp365
(I225
I213
tp366
a(I213
I258
tp367
a(I258
I225
tp368
aa(lp369
(I285
I272
tp370
a(I272
I271
tp371
a(I271
I285
tp372
aa(lp373
(I953
I919
tp374
a(I919
I908
tp375
a(I908
I953
tp376
aa(lp377
(I1292
I1294
tp378
a(I1294
I1293
tp379
a(I1293
I1292
tp380
aa(lp381
(I902
I905
tp382
a(I905
I904
tp383
a(I904
I902
tp384
aa(lp385
(I1363
I1341
tp386
a(I1341
I1330
tp387
a(I1330
I1363
tp388
aa(lp389
(I388
I176
tp390
a(I176
I175
tp391
a(I175
I388
tp392
aa(lp393
(I881
I880
tp394
a(I880
I909
tp395
a(I909
I881
tp396
aa(lp397
(I296
I295
tp398
a(I295
I294
tp399
a(I294
I296
tp400
aa(lp401
(I344
I301
tp402
a(I301
I299
tp403
a(I299
I344
tp404
aa(lp405
(I1130
I1097
tp406
a(I1097
I1141
tp407
a(I1141
I1130
tp408
aa(lp409
(I370
I353
tp410
a(I353
I352
tp411
a(I352
I370
tp412
aa(lp413
(I484
I487
tp414
a(I487
I473
tp415
a(I473
I484
tp416
aa(lp417
(I594
I593
tp418
a(I593
I591
tp419
a(I591
I594
tp420
aa(lp421
(I1209
I955
tp422
a(I955
I954
tp423
a(I954
I1209
tp424
aa(lp425
(I1268
I1267
tp426
a(I1267
I1266
tp427
a(I1266
I1268
tp428
aa(lp429
(I992
I1013
tp430
a(I1013
I999
tp431
a(I999
I992
tp432
aa(lp433
(I1064
I1019
tp434
a(I1019
I1385
tp435
a(I1385
I1064
tp436
aa(lp437
(I1122
I1081
tp438
a(I1081
I1078
tp439
a(I1078
I1122
tp440
aa(lp441
(I785
I727
tp442
a(I727
I726
tp443
a(I726
I785
tp444
aa(lp445
(I323
I321
tp446
a(I321
I320
tp447
a(I320
I323
tp448
aa(lp449
(I948
I1204
tp450
a(I1204
I951
tp451
a(I951
I948
tp452
aa(lp453
(I1011
I1166
tp454
a(I1166
I1015
tp455
a(I1015
I1011
tp456
aa(lp457
(I1001
I1176
tp458
a(I1176
I1002
tp459
a(I1002
I1001
tp460
aa(lp461
(I19
I33
tp462
a(I33
I24
tp463
a(I24
I19
tp464
aa(lp465
(I1297
I1286
tp466
a(I1286
I91
tp467
a(I91
I1297
tp468
aa(lp469
(I11
I53
tp470
a(I53
I13
tp471
a(I13
I11
tp472
aa(lp473
(I1074
I1058
tp474
a(I1058
I1055
tp475
a(I1055
I1074
tp476
aa(lp477
(I207
I206
tp478
a(I206
I230
tp479
a(I230
I207
tp480
aa(lp481
(I551
I548
tp482
a(I548
I552
tp483
a(I552
I551
tp484
aa(lp485
(I74
I73
tp486
a(I73
I76
tp487
a(I76
I74
tp488
aa(lp489
(I1357
I1351
tp490
a(I1351
I1343
tp491
a(I1343
I1357
tp492
aa(lp493
(I1033
I1032
tp494
a(I1032
I1110
tp495
a(I1110
I1033
tp496
aa(lp497
(I330
I329
tp498
a(I329
I337
tp499
a(I337
I330
tp500
aa(lp501
(I49
I9
tp502
a(I9
I8
tp503
a(I8
I49
tp504
aa(lp505
(I1104
I1094
tp506
a(I1094
I1093
tp507
a(I1093
I1104
tp508
aa(lp509
(I767
I765
tp510
a(I765
I777
tp511
a(I777
I767
tp512
aa(lp513
(I1213
I1234
tp514
a(I1234
I1216
tp515
a(I1216
I1213
tp516
aa(lp517
(I1318
I77
tp518
a(I77
I1321
tp519
a(I1321
I1318
tp520
aa(lp521
(I1236
I1235
tp522
a(I1235
I1244
tp523
a(I1244
I1236
tp524
aa(lp525
(I112
I111
tp526
a(I111
I109
tp527
a(I109
I112
tp528
aa(lp529
(I418
I384
tp530
a(I384
I383
tp531
a(I383
I418
tp532
aa(lp533
(I405
I426
tp534
a(I426
I406
tp535
a(I406
I405
tp536
aa(lp537
(I302
I169
tp538
a(I169
I136
tp539
a(I136
I302
tp540
aa(lp541
(I468
I443
tp542
a(I443
I444
tp543
a(I444
I468
tp544
aa(lp545
(I1084
I1073
tp546
a(I1073
I1071
tp547
a(I1071
I1084
tp548
aa(lp549
(I877
I898
tp550
a(I898
I883
tp551
a(I883
I877
tp552
aa(lp553
(I522
I543
tp554
a(I543
I523
tp555
a(I523
I522
tp556
aa(lp557
(I716
I685
tp558
a(I685
I679
tp559
a(I679
I716
tp560
aa(lp561
(I313
I358
tp562
a(I358
I336
tp563
a(I336
I313
tp564
aa(lp565
(I1066
I1053
tp566
a(I1053
I1042
tp567
a(I1042
I1066
tp568
aa(lp569
(I1274
I1263
tp570
a(I1263
I14
tp571
a(I14
I1274
tp572
aa(lp573
(I571
I565
tp574
a(I565
I562
tp575
a(I562
I571
tp576
aa(lp577
(I1183
I1180
tp578
a(I1180
I1179
tp579
a(I1179
I1183
tp580
aa(lp581
(I1027
I1009
tp582
a(I1009
I1007
tp583
a(I1007
I1027
tp584
aa(lp585
(I793
I792
tp586
a(I792
I804
tp587
a(I804
I793
tp588
aa(lp589
(I1004
I993
tp590
a(I993
I994
tp591
a(I994
I1016
tp592
a(I1016
I1004
tp593
aa(lp594
(I415
I441
tp595
a(I441
I440
tp596
a(I440
I414
tp597
a(I414
I415
tp598
aa(lp599
(I735
I736
tp600
a(I736
I751
tp601
a(I751
I749
tp602
a(I749
I735
tp603
aa(lp604
(I422
I421
tp605
a(I421
I401
tp606
a(I401
I403
tp607
a(I403
I422
tp608
aa(lp609
(I1052
I69
tp610
a(I69
I58
tp611
a(I58
I1041
tp612
a(I1041
I1052
tp613
aa(lp614
(I350
I367
tp615
a(I367
I362
tp616
a(I362
I349
tp617
a(I349
I350
tp618
aa(lp619
(I85
I87
tp620
a(I87
I86
tp621
a(I86
I84
tp622
a(I84
I85
tp623
aa(lp624
(I1331
I1329
tp625
a(I1329
I57
tp626
a(I57
I59
tp627
a(I59
I1331
tp628
aa(lp629
(I1333
I1334
tp630
a(I1334
I62
tp631
a(I62
I1371
tp632
a(I1371
I1333
tp633
aa(lp634
(I237
I238
tp635
a(I238
I240
tp636
a(I240
I239
tp637
a(I239
I237
tp638
aa(lp639
(I710
I699
tp640
a(I699
I690
tp641
a(I690
I691
tp642
a(I691
I710
tp643
aa(lp644
(I1123
I1138
tp645
a(I1138
I1139
tp646
a(I1139
I1124
tp647
a(I1124
I1123
tp648
aa(lp649
(I822
I821
tp650
a(I821
I828
tp651
a(I828
I823
tp652
a(I823
I822
tp653
aa(lp654
(I77
I1326
tp655
a(I1326
I1320
tp656
a(I1320
I1321
tp657
a(I1321
I77
tp658
aa(lp659
(I1061
I1049
tp660
a(I1049
I1050
tp661
a(I1050
I1062
tp662
a(I1062
I1061
tp663
aa(lp664
(I841
I619
tp665
a(I619
I118
tp666
a(I118
I145
tp667
a(I145
I841
tp668
aa(lp669
(I578
I590
tp670
a(I590
I584
tp671
a(I584
I577
tp672
a(I577
I578
tp673
aa(lp674
(I1239
I1247
tp675
a(I1247
I929
tp676
a(I929
I923
tp677
a(I923
I1239
tp678
aa(lp679
(I790
I788
tp680
a(I788
I794
tp681
a(I794
I798
tp682
a(I798
I790
tp683
aa(lp684
(I439
I412
tp685
a(I412
I414
tp686
a(I414
I440
tp687
a(I440
I439
tp688
aa(lp689
(I1147
I1150
tp690
a(I1150
I867
tp691
a(I867
I866
tp692
a(I866
I1147
tp693
aa(lp694
(I1053
I1066
tp695
a(I1066
I1065
tp696
a(I1065
I1051
tp697
a(I1051
I1053
tp698
aa(lp699
(I667
I659
tp700
a(I659
I651
tp701
a(I651
I652
tp702
a(I652
I667
tp703
aa(lp704
(I1376
I31
tp705
a(I31
I45
tp706
a(I45
I1381
tp707
a(I1381
I1376
tp708
aa(lp709
(I1172
I1177
tp710
a(I1177
I1173
tp711
a(I1173
I1171
tp712
a(I1171
I1172
tp713
aa(lp714
(I1062
I1050
tp715
a(I1050
I1051
tp716
a(I1051
I1065
tp717
a(I1065
I1062
tp718
aa(lp719
(I1359
I1360
tp720
a(I1360
I89
tp721
a(I89
I88
tp722
a(I88
I1359
tp723
aa(lp724
(I195
I194
tp725
a(I194
I240
tp726
a(I240
I238
tp727
a(I238
I195
tp728
aa(lp729
(I1340
I1322
tp730
a(I1322
I852
tp731
a(I852
I854
tp732
a(I854
I1340
tp733
aa(lp734
(I161
I168
tp735
a(I168
I167
tp736
a(I167
I160
tp737
a(I160
I161
tp738
aa(lp739
(I248
I242
tp740
a(I242
I283
tp741
a(I283
I287
tp742
a(I287
I248
tp743
aa(lp744
(I778
I743
tp745
a(I743
I744
tp746
a(I744
I779
tp747
a(I779
I778
tp748
aa(lp749
(I1036
I1025
tp750
a(I1025
I1026
tp751
a(I1026
I1035
tp752
a(I1035
I1036
tp753
aa(lp754
(I412
I439
tp755
a(I439
I437
tp756
a(I437
I411
tp757
a(I411
I412
tp758
aa(lp759
(I5
I18
tp760
a(I18
I49
tp761
a(I49
I8
tp762
a(I8
I5
tp763
aa(lp764
(I281
I319
tp765
a(I319
I318
tp766
a(I318
I279
tp767
a(I279
I281
tp768
aa(lp769
(I48
I30
tp770
a(I30
I26
tp771
a(I26
I41
tp772
a(I41
I48
tp773
aa(lp774
(I182
I388
tp775
a(I388
I175
tp776
a(I175
I172
tp777
a(I172
I182
tp778
aa(lp779
(I1342
I1340
tp780
a(I1340
I854
tp781
a(I854
I855
tp782
a(I855
I1342
tp783
aa(lp784
(I666
I663
tp785
a(I663
I840
tp786
a(I840
I1281
tp787
a(I1281
I666
tp788
aa(lp789
(I863
I1145
tp790
a(I1145
I1146
tp791
a(I1146
I865
tp792
a(I865
I863
tp793
aa(lp794
(I944
I940
tp795
a(I940
I916
tp796
a(I916
I917
tp797
a(I917
I944
tp798
aa(lp799
(I480
I479
tp800
a(I479
I470
tp801
a(I470
I471
tp802
a(I471
I480
tp803
aa(lp804
(I1313
I1310
tp805
a(I1310
I1311
tp806
a(I1311
I1312
tp807
a(I1312
I1313
tp808
aa(lp809
(I332
I333
tp810
a(I333
I326
tp811
a(I326
I327
tp812
a(I327
I332
tp813
aa(lp814
(I1207
I1205
tp815
a(I1205
I950
tp816
a(I950
I949
tp817
a(I949
I1207
tp818
aa(lp819
(I610
I611
tp820
a(I611
I825
tp821
a(I825
I818
tp822
a(I818
I610
tp823
aa(lp824
(I715
I712
tp825
a(I712
I711
tp826
a(I711
I714
tp827
a(I714
I715
tp828
aa(lp829
(I1191
I974
tp830
a(I974
I976
tp831
a(I976
I1192
tp832
a(I1192
I1191
tp833
aa(lp834
(I24
I33
tp835
a(I33
I32
tp836
a(I32
I23
tp837
a(I23
I24
tp838
aa(lp839
(I488
I492
tp840
a(I492
I498
tp841
a(I498
I489
tp842
a(I489
I488
tp843
aa(lp844
(I462
I460
tp845
a(I460
I470
tp846
a(I470
I479
tp847
a(I479
I462
tp848
aa(lp849
(I20
I21
tp850
a(I21
I10
tp851
a(I10
I6
tp852
a(I6
I20
tp853
aa(lp854
(I892
I889
tp855
a(I889
I903
tp856
a(I903
I906
tp857
a(I906
I892
tp858
aa(lp859
(I1107
I1106
tp860
a(I1106
I1096
tp861
a(I1096
I1098
tp862
a(I1098
I1107
tp863
aa(lp864
(I544
I540
tp865
a(I540
I541
tp866
a(I541
I547
tp867
a(I547
I544
tp868
aa(lp869
(I874
I872
tp870
a(I872
I1187
tp871
a(I1187
I1193
tp872
a(I1193
I874
tp873
aa(lp874
(I380
I391
tp875
a(I391
I449
tp876
a(I449
I447
tp877
a(I447
I380
tp878
aa(lp879
(I925
I926
tp880
a(I926
I1240
tp881
a(I1240
I1233
tp882
a(I1233
I925
tp883
aa(lp884
(I1394
I1393
tp885
a(I1393
I1386
tp886
a(I1386
I1387
tp887
a(I1387
I1394
tp888
aa(lp889
(I628
I1271
tp890
a(I1271
I94
tp891
a(I94
I629
tp892
a(I629
I628
tp893
aa(lp894
(I994
I987
tp895
a(I987
I988
tp896
a(I988
I1016
tp897
a(I1016
I994
tp898
aa(lp899
(I580
I581
tp900
a(I581
I585
tp901
a(I585
I583
tp902
a(I583
I580
tp903
aa(lp904
(I1350
I1351
tp905
a(I1351
I1357
tp906
a(I1357
I1356
tp907
a(I1356
I1350
tp908
aa(lp909
(I599
I600
tp910
a(I600
I466
tp911
a(I466
I465
tp912
a(I465
I599
tp913
aa(lp914
(I798
I794
tp915
a(I794
I795
tp916
a(I795
I799
tp917
a(I799
I798
tp918
aa(lp919
(I148
I126
tp920
a(I126
I127
tp921
a(I127
I152
tp922
a(I152
I148
tp923
aa(lp924
(I296
I252
tp925
a(I252
I250
tp926
a(I250
I295
tp927
a(I295
I296
tp928
aa(lp929
(I1143
I1000
tp930
a(I1000
I996
tp931
a(I996
I1167
tp932
a(I1167
I1143
tp933
aa(lp934
(I1312
I1311
tp935
a(I1311
I1303
tp936
a(I1303
I1304
tp937
a(I1304
I1312
tp938
aa(lp939
(I722
I811
tp940
a(I811
I684
tp941
a(I684
I680
tp942
a(I680
I722
tp943
aa(lp944
(I811
I810
tp945
a(I810
I683
tp946
a(I683
I684
tp947
a(I684
I811
tp948
aa(lp949
(I300
I301
tp950
a(I301
I344
tp951
a(I344
I343
tp952
a(I343
I300
tp953
aa(lp954
(I757
I809
tp955
a(I809
I750
tp956
a(I750
I748
tp957
a(I748
I757
tp958
aa(lp959
(I1101
I1111
tp960
a(I1111
I1088
tp961
a(I1088
I1087
tp962
a(I1087
I1101
tp963
aa(lp964
(I493
I499
tp965
a(I499
I498
tp966
a(I498
I492
tp967
a(I492
I493
tp968
aa(lp969
(I419
I400
tp970
a(I400
I401
tp971
a(I401
I421
tp972
a(I421
I419
tp973
aa(lp974
(I1243
I1244
tp975
a(I1244
I1235
tp976
a(I1235
I1232
tp977
a(I1232
I1243
tp978
aa(lp979
(I968
I1162
tp980
a(I1162
I1164
tp981
a(I1164
I969
tp982
a(I969
I968
tp983
aa(lp984
(I796
I783
tp985
a(I783
I781
tp986
a(I781
I789
tp987
a(I789
I796
tp988
aa(lp989
(I1300
I1296
tp990
a(I1296
I1295
tp991
a(I1295
I1299
tp992
a(I1299
I1300
tp993
aa(lp994
(I229
I235
tp995
a(I235
I233
tp996
a(I233
I228
tp997
a(I228
I229
tp998
aa(lp999
(I93
I83
tp1000
a(I83
I81
tp1001
a(I81
I92
tp1002
a(I92
I93
tp1003
aa(lp1004
(I159
I165
tp1005
a(I165
I166
tp1006
a(I166
I157
tp1007
a(I157
I159
tp1008
aa(lp1009
(I723
I732
tp1010
a(I732
I747
tp1011
a(I747
I724
tp1012
a(I724
I723
tp1013
aa(lp1014
(I368
I371
tp1015
a(I371
I364
tp1016
a(I364
I361
tp1017
a(I361
I368
tp1018
aa(lp1019
(I217
I215
tp1020
a(I215
I241
tp1021
a(I241
I260
tp1022
a(I260
I217
tp1023
aa(lp1024
(I138
I325
tp1025
a(I325
I282
tp1026
a(I282
I137
tp1027
a(I137
I138
tp1028
aa(lp1029
(I617
I629
tp1030
a(I629
I94
tp1031
a(I94
I618
tp1032
a(I618
I617
tp1033
aa(lp1034
(I1255
I896
tp1035
a(I896
I894
tp1036
a(I894
I1254
tp1037
a(I1254
I1255
tp1038
aa(lp1039
(I557
I546
tp1040
a(I546
I545
tp1041
a(I545
I550
tp1042
a(I550
I557
tp1043
aa(lp1044
(I499
I493
tp1045
a(I493
I477
tp1046
a(I477
I478
tp1047
a(I478
I499
tp1048
aa(lp1049
(I876
I831
tp1050
a(I831
I832
tp1051
a(I832
I1188
tp1052
a(I1188
I876
tp1053
aa(lp1054
(I29
I46
tp1055
a(I46
I44
tp1056
a(I44
I28
tp1057
a(I28
I29
tp1058
aa(lp1059
(I259
I253
tp1060
a(I253
I254
tp1061
a(I254
I257
tp1062
a(I257
I259
tp1063
aa(lp1064
(I1269
I1199
tp1065
a(I1199
I614
tp1066
a(I614
I613
tp1067
a(I613
I1269
tp1068
aa(lp1069
(I356
I144
tp1070
a(I144
I124
tp1071
a(I124
I151
tp1072
a(I151
I356
tp1073
aa(lp1074
(I1137
I1135
tp1075
a(I1135
I1128
tp1076
a(I1128
I1129
tp1077
a(I1129
I1137
tp1078
aa(lp1079
(I501
I558
tp1080
a(I558
I570
tp1081
a(I570
I504
tp1082
a(I504
I501
tp1083
aa(lp1084
(I715
I692
tp1085
a(I692
I689
tp1086
a(I689
I712
tp1087
a(I712
I715
tp1088
aa(lp1089
(I530
I529
tp1090
a(I529
I534
tp1091
a(I534
I536
tp1092
a(I536
I530
tp1093
aa(lp1094
(I1306
I1275
tp1095
a(I1275
I1272
tp1096
a(I1272
I1280
tp1097
a(I1280
I1306
tp1098
aa(lp1099
(I1076
I1059
tp1100
a(I1059
I1043
tp1101
a(I1043
I1044
tp1102
a(I1044
I1076
tp1103
aa(lp1104
(I433
I432
tp1105
a(I432
I416
tp1106
a(I416
I417
tp1107
a(I417
I433
tp1108
aa(lp1109
(I1242
I927
tp1110
a(I927
I921
tp1111
a(I921
I1214
tp1112
a(I1214
I1242
tp1113
aa(lp1114
(I845
I844
tp1115
a(I844
I1299
tp1116
a(I1299
I1295
tp1117
a(I1295
I845
tp1118
aa(lp1119
(I375
I376
tp1120
a(I376
I177
tp1121
a(I177
I174
tp1122
a(I174
I375
tp1123
aa(lp1124
(I100
I108
tp1125
a(I108
I106
tp1126
a(I106
I99
tp1127
a(I99
I100
tp1128
aa(lp1129
(I1090
I1089
tp1130
a(I1089
I1114
tp1131
a(I1114
I1112
tp1132
a(I1112
I1090
tp1133
aa(lp1134
(I212
I211
tp1135
a(I211
I218
tp1136
a(I218
I220
tp1137
a(I220
I212
tp1138
aa(lp1139
(I675
I964
tp1140
a(I964
I941
tp1141
a(I941
I664
tp1142
a(I664
I675
tp1143
aa(lp1144
(I1383
I1367
tp1145
a(I1367
I1365
tp1146
a(I1365
I1373
tp1147
a(I1373
I1383
tp1148
aa(lp1149
(I1372
I1386
tp1150
a(I1386
I1393
tp1151
a(I1393
I1375
tp1152
a(I1375
I1372
tp1153
aa(lp1154
(I809
I705
tp1155
a(I705
I702
tp1156
a(I702
I750
tp1157
a(I750
I809
tp1158
aa(lp1159
(I292
I268
tp1160
a(I268
I245
tp1161
a(I245
I246
tp1162
a(I246
I292
tp1163
aa(lp1164
(I1197
I1175
tp1165
a(I1175
I236
tp1166
a(I236
I247
tp1167
a(I247
I1197
tp1168
aa(lp1169
(I623
I622
tp1170
a(I622
I105
tp1171
a(I105
I107
tp1172
a(I107
I623
tp1173
aa(lp1174
(I277
I303
tp1175
a(I303
I297
tp1176
a(I297
I276
tp1177
a(I276
I277
tp1178
aa(lp1179
(I644
I630
tp1180
a(I630
I603
tp1181
a(I603
I604
tp1182
a(I604
I644
tp1183
aa(lp1184
(I386
I436
tp1185
a(I436
I434
tp1186
a(I434
I385
tp1187
a(I385
I386
tp1188
aa(lp1189
(I777
I773
tp1190
a(I773
I766
tp1191
a(I766
I767
tp1192
a(I767
I777
tp1193
aa(lp1194
(I71
I75
tp1195
a(I75
I67
tp1196
a(I67
I66
tp1197
a(I66
I71
tp1198
aa(lp1199
(I165
I159
tp1200
a(I159
I160
tp1201
a(I160
I167
tp1202
a(I167
I165
tp1203
aa(lp1204
(I1228
I1229
tp1205
a(I1229
I1245
tp1206
a(I1245
I1238
tp1207
a(I1238
I1228
tp1208
aa(lp1209
(I1144
I1178
tp1210
a(I1178
I1003
tp1211
a(I1003
I995
tp1212
a(I995
I1144
tp1213
aa(lp1214
(I965
I1146
tp1215
a(I1146
I1145
tp1216
a(I1145
I963
tp1217
a(I963
I965
tp1218
aa(lp1219
(I329
I140
tp1220
a(I140
I139
tp1221
a(I139
I337
tp1222
a(I337
I329
tp1223
aa(lp1224
(I37
I38
tp1225
a(I38
I52
tp1226
a(I52
I51
tp1227
a(I51
I37
tp1228
aa(lp1229
(I332
I327
tp1230
a(I327
I328
tp1231
a(I328
I334
tp1232
a(I334
I332
tp1233
aa(lp1234
(I155
I154
tp1235
a(I154
I128
tp1236
a(I128
I129
tp1237
a(I129
I155
tp1238
aa(lp1239
(I1151
I1157
tp1240
a(I1157
I1165
tp1241
a(I1165
I1153
tp1242
a(I1153
I1151
tp1243
aa(lp1244
(I657
I1270
tp1245
a(I1270
I654
tp1246
a(I654
I649
tp1247
a(I649
I657
tp1248
aa(lp1249
(I922
I920
tp1250
a(I920
I955
tp1251
a(I955
I1209
tp1252
a(I1209
I922
tp1253
aa(lp1254
(I1339
I1337
tp1255
a(I1337
I74
tp1256
a(I74
I76
tp1257
a(I76
I1339
tp1258
aa(lp1259
(I1031
I1109
tp1260
a(I1109
I1040
tp1261
a(I1040
I1029
tp1262
a(I1029
I1031
tp1263
aa(lp1264
(I78
I84
tp1265
a(I84
I86
tp1266
a(I86
I79
tp1267
a(I79
I78
tp1268
aa(lp1269
(I315
I314
tp1270
a(I314
I331
tp1271
a(I331
I338
tp1272
a(I338
I315
tp1273
aa(lp1274
(I158
I602
tp1275
a(I602
I624
tp1276
a(I624
I202
tp1277
a(I202
I158
tp1278
aa(lp1279
(I693
I692
tp1280
a(I692
I715
tp1281
a(I715
I714
tp1282
a(I714
I693
tp1283
aa(lp1284
(I132
I186
tp1285
a(I186
I185
tp1286
a(I185
I131
tp1287
a(I131
I132
tp1288
aa(lp1289
(I375
I174
tp1290
a(I174
I173
tp1291
a(I173
I366
tp1292
a(I366
I365
tp1293
a(I365
I375
tp1294
aa(lp1295
(I833
I835
tp1296
a(I835
I661
tp1297
a(I661
I662
tp1298
a(I662
I834
tp1299
a(I834
I833
tp1300
aa(lp1301
(I797
I764
tp1302
a(I764
I620
tp1303
a(I620
I631
tp1304
a(I631
I897
tp1305
a(I897
I797
tp1306
aa(lp1307
(I784
I783
tp1308
a(I783
I796
tp1309
a(I796
I799
tp1310
a(I799
I795
tp1311
a(I795
I784
tp1312
aa(lp1313
(I389
I378
tp1314
a(I378
I379
tp1315
a(I379
I399
tp1316
a(I399
I394
tp1317
a(I394
I389
tp1318
aa(lp1319
(I4
I1395
tp1320
a(I1395
I1394
tp1321
a(I1394
I1387
tp1322
a(I1387
I1388
tp1323
a(I1388
I4
tp1324
aa(lp1325
(I886
I875
tp1326
a(I875
I110
tp1327
a(I110
I775
tp1328
a(I775
I786
tp1329
a(I786
I886
tp1330
aa(lp1331
(I816
I824
tp1332
a(I824
I828
tp1333
a(I828
I821
tp1334
a(I821
I817
tp1335
a(I817
I816
tp1336
aa(lp1337
(I801
I802
tp1338
a(I802
I805
tp1339
a(I805
I806
tp1340
a(I806
I807
tp1341
a(I807
I801
tp1342
aa(lp1343
(I533
I527
tp1344
a(I527
I513
tp1345
a(I513
I515
tp1346
a(I515
I535
tp1347
a(I535
I533
tp1348
aa(lp1349
(I667
I652
tp1350
a(I652
I637
tp1351
a(I637
I638
tp1352
a(I638
I668
tp1353
a(I668
I667
tp1354
aa(lp1355
(I507
I500
tp1356
a(I500
I481
tp1357
a(I481
I482
tp1358
a(I482
I510
tp1359
a(I510
I507
tp1360
aa(lp1361
(I395
I400
tp1362
a(I400
I419
tp1363
a(I419
I420
tp1364
a(I420
I397
tp1365
a(I397
I395
tp1366
aa(lp1367
(I247
I236
tp1368
a(I236
I125
tp1369
a(I125
I1186
tp1370
a(I1186
I1208
tp1371
a(I1208
I247
tp1372
aa(lp1373
(I747
I729
tp1374
a(I729
I721
tp1375
a(I721
I718
tp1376
a(I718
I724
tp1377
a(I724
I747
tp1378
aa(lp1379
(I34
I37
tp1380
a(I37
I51
tp1381
a(I51
I50
tp1382
a(I50
I54
tp1383
a(I54
I34
tp1384
aa(lp1385
(I185
I183
tp1386
a(I183
I164
tp1387
a(I164
I130
tp1388
a(I130
I131
tp1389
a(I131
I185
tp1390
aa(lp1391
(I1285
I453
tp1392
a(I453
I442
tp1393
a(I442
I224
tp1394
a(I224
I1063
tp1395
a(I1063
I1285
tp1396
aa(lp1397
(I1027
I1022
tp1398
a(I1022
I1018
tp1399
a(I1018
I1006
tp1400
a(I1006
I1009
tp1401
a(I1009
I1027
tp1402
aa(lp1403
(I643
I812
tp1404
a(I812
I677
tp1405
a(I677
I670
tp1406
a(I670
I641
tp1407
a(I641
I643
tp1408
aa(lp1409
(I405
I407
tp1410
a(I407
I427
tp1411
a(I427
I425
tp1412
a(I425
I426
tp1413
a(I426
I405
tp1414
aa(lp1415
(I1335
I64
tp1416
a(I64
I63
tp1417
a(I63
I62
tp1418
a(I62
I1334
tp1419
a(I1334
I1335
tp1420
aa(lp1421
(I901
I888
tp1422
a(I888
I890
tp1423
a(I890
I900
tp1424
a(I900
I899
tp1425
a(I899
I901
tp1426
aa(lp1427
(I1284
I1289
tp1428
a(I1289
I1288
tp1429
a(I1288
I1291
tp1430
a(I1291
I1282
tp1431
a(I1282
I1284
tp1432
aa(lp1433
(I1289
I1290
tp1434
a(I1290
I1278
tp1435
a(I1278
I1279
tp1436
a(I1279
I1288
tp1437
a(I1288
I1289
tp1438
aa(lp1439
(I932
I931
tp1440
a(I931
I918
tp1441
a(I918
I911
tp1442
a(I911
I912
tp1443
a(I912
I932
tp1444
aa(lp1445
(I1308
I1030
tp1446
a(I1030
I1041
tp1447
a(I1041
I58
tp1448
a(I58
I36
tp1449
a(I36
I1308
tp1450
aa(lp1451
(I581
I580
tp1452
a(I580
I573
tp1453
a(I573
I579
tp1454
a(I579
I582
tp1455
a(I582
I581
tp1456
aa(lp1457
(I649
I650
tp1458
a(I650
I655
tp1459
a(I655
I656
tp1460
a(I656
I657
tp1461
a(I657
I649
tp1462
aa(lp1463
(I763
I770
tp1464
a(I770
I771
tp1465
a(I771
I768
tp1466
a(I768
I762
tp1467
a(I762
I763
tp1468
aa(lp1469
(I251
I252
tp1470
a(I252
I296
tp1471
a(I296
I294
tp1472
a(I294
I293
tp1473
a(I293
I251
tp1474
aa(lp1475
(I842
I808
tp1476
a(I808
I919
tp1477
a(I919
I953
tp1478
a(I953
I930
tp1479
a(I930
I842
tp1480
aa(lp1481
(I586
I608
tp1482
a(I608
I731
tp1483
a(I731
I719
tp1484
a(I719
I742
tp1485
a(I742
I586
tp1486
aa(lp1487
(I722
I720
tp1488
a(I720
I746
tp1489
a(I746
I810
tp1490
a(I810
I811
tp1491
a(I811
I722
tp1492
aa(lp1493
(I1165
I870
tp1494
a(I870
I867
tp1495
a(I867
I1150
tp1496
a(I1150
I1153
tp1497
a(I1153
I1165
tp1498
aa(lp1499
(I146
I123
tp1500
a(I123
I119
tp1501
a(I119
I117
tp1502
a(I117
I120
tp1503
a(I120
I146
tp1504
aa(lp1505
(I1335
I1336
tp1506
a(I1336
I68
tp1507
a(I68
I65
tp1508
a(I65
I64
tp1509
a(I64
I1335
tp1510
aa(lp1511
(I363
I364
tp1512
a(I364
I371
tp1513
a(I371
I372
tp1514
a(I372
I373
tp1515
a(I373
I363
tp1516
aa(lp1517
(I1132
I1125
tp1518
a(I1125
I1124
tp1519
a(I1124
I1139
tp1520
a(I1139
I1140
tp1521
a(I1140
I1132
tp1522
aa(lp1523
(I63
I60
tp1524
a(I60
I1370
tp1525
a(I1370
I1371
tp1526
a(I1371
I62
tp1527
a(I62
I63
tp1528
aa(lp1529
(I235
I229
tp1530
a(I229
I230
tp1531
a(I230
I206
tp1532
a(I206
I208
tp1533
a(I208
I235
tp1534
aa(lp1535
(I1198
I1268
tp1536
a(I1268
I1266
tp1537
a(I1266
I1258
tp1538
a(I1258
I1196
tp1539
a(I1196
I1198
tp1540
aa(lp1541
(I1027
I1007
tp1542
a(I1007
I1010
tp1543
a(I1010
I1023
tp1544
a(I1023
I1022
tp1545
a(I1022
I1027
tp1546
aa(lp1547
(I257
I261
tp1548
a(I261
I262
tp1549
a(I262
I275
tp1550
a(I275
I259
tp1551
a(I259
I257
tp1552
aa(lp1553
(I336
I358
tp1554
a(I358
I369
tp1555
a(I369
I445
tp1556
a(I445
I324
tp1557
a(I324
I336
tp1558
aa(lp1559
(I219
I204
tp1560
a(I204
I205
tp1561
a(I205
I226
tp1562
a(I226
I221
tp1563
a(I221
I219
tp1564
aa(lp1565
(I249
I251
tp1566
a(I251
I293
tp1567
a(I293
I274
tp1568
a(I274
I270
tp1569
a(I270
I249
tp1570
aa(lp1571
(I755
I756
tp1572
a(I756
I759
tp1573
a(I759
I760
tp1574
a(I760
I761
tp1575
a(I761
I755
tp1576
aa(lp1577
(I228
I233
tp1578
a(I233
I234
tp1579
a(I234
I231
tp1580
a(I231
I227
tp1581
a(I227
I228
tp1582
aa(lp1583
(I1314
I1315
tp1584
a(I1315
I1305
tp1585
a(I1305
I1301
tp1586
a(I1301
I1309
tp1587
a(I1309
I1314
tp1588
aa(lp1589
(I787
I776
tp1590
a(I776
I774
tp1591
a(I774
I780
tp1592
a(I780
I782
tp1593
a(I782
I787
tp1594
aa(lp1595
(I198
I199
tp1596
a(I199
I200
tp1597
a(I200
I201
tp1598
a(I201
I197
tp1599
a(I197
I198
tp1600
aa(lp1601
(I237
I239
tp1602
a(I239
I232
tp1603
a(I232
I231
tp1604
a(I231
I234
tp1605
a(I234
I237
tp1606
aa(lp1607
(I1058
I1074
tp1608
a(I1074
I1068
tp1609
a(I1068
I1069
tp1610
a(I1069
I1056
tp1611
a(I1056
I1058
tp1612
aa(lp1613
(I18
I17
tp1614
a(I17
I7
tp1615
a(I7
I9
tp1616
a(I9
I49
tp1617
a(I49
I18
tp1618
aa(lp1619
(I945
I944
tp1620
a(I944
I917
tp1621
a(I917
I859
tp1622
a(I859
I860
tp1623
a(I860
I945
tp1624
aa(lp1625
(I287
I266
tp1626
a(I266
I267
tp1627
a(I267
I243
tp1628
a(I243
I248
tp1629
a(I248
I287
tp1630
aa(lp1631
(I1013
I1014
tp1632
a(I1014
I1168
tp1633
a(I1168
I998
tp1634
a(I998
I999
tp1635
a(I999
I1013
tp1636
aa(lp1637
(I752
I758
tp1638
a(I758
I737
tp1639
a(I737
I739
tp1640
a(I739
I754
tp1641
a(I754
I752
tp1642
aa(lp1643
(I1118
I1120
tp1644
a(I1120
I1136
tp1645
a(I1136
I1134
tp1646
a(I1134
I1126
tp1647
a(I1126
I1118
tp1648
aa(lp1649
(I376
I378
tp1650
a(I378
I389
tp1651
a(I389
I178
tp1652
a(I178
I177
tp1653
a(I177
I376
tp1654
aa(lp1655
(I1004
I1016
tp1656
a(I1016
I988
tp1657
a(I988
I981
tp1658
a(I981
I980
tp1659
a(I980
I1004
tp1660
aa(lp1661
(I456
I599
tp1662
a(I599
I465
tp1663
a(I465
I463
tp1664
a(I463
I457
tp1665
a(I457
I456
tp1666
aa(lp1667
(I672
I698
tp1668
a(I698
I707
tp1669
a(I707
I709
tp1670
a(I709
I673
tp1671
a(I673
I672
tp1672
aa(lp1673
(I1047
I984
tp1674
a(I984
I959
tp1675
a(I959
I960
tp1676
a(I960
I1048
tp1677
a(I1048
I1047
tp1678
aa(lp1679
(I1064
I1385
tp1680
a(I1385
I1374
tp1681
a(I1374
I69
tp1682
a(I69
I1052
tp1683
a(I1052
I1064
tp1684
aa(lp1685
(I1358
I1359
tp1686
a(I1359
I88
tp1687
a(I88
I87
tp1688
a(I87
I85
tp1689
a(I85
I1358
tp1690
aa(lp1691
(I182
I172
tp1692
a(I172
I170
tp1693
a(I170
I171
tp1694
a(I171
I181
tp1695
a(I181
I182
tp1696
aa(lp1697
(I116
I101
tp1698
a(I101
I103
tp1699
a(I103
I357
tp1700
a(I357
I355
tp1701
a(I355
I116
tp1702
aa(lp1703
(I790
I798
tp1704
a(I798
I799
tp1705
a(I799
I796
tp1706
a(I796
I789
tp1707
a(I789
I790
tp1708
aa(lp1709
(I1193
I1185
tp1710
a(I1185
I1182
tp1711
a(I1182
I873
tp1712
a(I873
I874
tp1713
a(I874
I1193
tp1714
aa(lp1715
(I15
I20
tp1716
a(I20
I6
tp1717
a(I6
I7
tp1718
a(I7
I17
tp1719
a(I17
I15
tp1720
aa(lp1721
(I758
I752
tp1722
a(I752
I751
tp1723
a(I751
I736
tp1724
a(I736
I738
tp1725
a(I738
I758
tp1726
aa(lp1727
(I127
I128
tp1728
a(I128
I154
tp1729
a(I154
I153
tp1730
a(I153
I152
tp1731
a(I152
I127
tp1732
aa(lp1733
(I65
I68
tp1734
a(I68
I70
tp1735
a(I70
I71
tp1736
a(I71
I66
tp1737
a(I66
I65
tp1738
aa(lp1739
(I711
I710
tp1740
a(I710
I691
tp1741
a(I691
I693
tp1742
a(I693
I714
tp1743
a(I714
I711
tp1744
aa(lp1745
(I953
I908
tp1746
a(I908
I653
tp1747
a(I653
I642
tp1748
a(I642
I930
tp1749
a(I930
I953
tp1750
aa(lp1751
(I818
I815
tp1752
a(I815
I609
tp1753
a(I609
I601
tp1754
a(I601
I610
tp1755
a(I610
I818
tp1756
aa(lp1757
(I891
I905
tp1758
a(I905
I902
tp1759
a(I902
I900
tp1760
a(I900
I890
tp1761
a(I890
I891
tp1762
aa(lp1763
(I73
I72
tp1764
a(I72
I1338
tp1765
a(I1338
I1339
tp1766
a(I1339
I76
tp1767
a(I76
I73
tp1768
aa(lp1769
(I768
I769
tp1770
a(I769
I760
tp1771
a(I760
I759
tp1772
a(I759
I762
tp1773
a(I762
I768
tp1774
aa(lp1775
(I1163
I114
tp1776
a(I114
I125
tp1777
a(I125
I236
tp1778
a(I236
I1175
tp1779
a(I1175
I1163
tp1780
aa(lp1781
(I625
I624
tp1782
a(I624
I602
tp1783
a(I602
I603
tp1784
a(I603
I630
tp1785
a(I630
I625
tp1786
aa(lp1787
(I1088
I1111
tp1788
a(I1111
I1113
tp1789
a(I1113
I1114
tp1790
a(I1114
I1089
tp1791
a(I1089
I1088
tp1792
aa(lp1793
(I187
I190
tp1794
a(I190
I198
tp1795
a(I198
I197
tp1796
a(I197
I188
tp1797
a(I188
I187
tp1798
aa(lp1799
(I70
I68
tp1800
a(I68
I1336
tp1801
a(I1336
I1338
tp1802
a(I1338
I72
tp1803
a(I72
I70
tp1804
aa(lp1805
(I524
I547
tp1806
a(I547
I541
tp1807
a(I541
I543
tp1808
a(I543
I522
tp1809
a(I522
I524
tp1810
aa(lp1811
(I912
I914
tp1812
a(I914
I938
tp1813
a(I938
I933
tp1814
a(I933
I932
tp1815
a(I932
I912
tp1816
aa(lp1817
(I527
I533
tp1818
a(I533
I534
tp1819
a(I534
I529
tp1820
a(I529
I526
tp1821
a(I526
I527
tp1822
aa(lp1823
(I687
I639
tp1824
a(I639
I641
tp1825
a(I641
I670
tp1826
a(I670
I671
tp1827
a(I671
I687
tp1828
aa(lp1829
(I359
I357
tp1830
a(I357
I103
tp1831
a(I103
I596
tp1832
a(I596
I598
tp1833
a(I598
I359
tp1834
aa(lp1835
(I810
I746
tp1836
a(I746
I745
tp1837
a(I745
I682
tp1838
a(I682
I683
tp1839
a(I683
I810
tp1840
aa(lp1841
(I268
I292
tp1842
a(I292
I244
tp1843
a(I244
I243
tp1844
a(I243
I267
tp1845
a(I267
I268
tp1846
aa(lp1847
(I499
I478
tp1848
a(I478
I474
tp1849
a(I474
I489
tp1850
a(I489
I498
tp1851
a(I498
I499
tp1852
aa(lp1853
(I265
I263
tp1854
a(I263
I286
tp1855
a(I286
I289
tp1856
a(I289
I290
tp1857
a(I290
I265
tp1858
aa(lp1859
(I774
I772
tp1860
a(I772
I778
tp1861
a(I778
I779
tp1862
a(I779
I780
tp1863
a(I780
I774
tp1864
aa(lp1865
(I300
I343
tp1866
a(I343
I342
tp1867
a(I342
I256
tp1868
a(I256
I255
tp1869
a(I255
I300
tp1870
aa(lp1871
(I402
I452
tp1872
a(I452
I450
tp1873
a(I450
I449
tp1874
a(I449
I391
tp1875
a(I391
I402
tp1876
aa(lp1877
(I288
I273
tp1878
a(I273
I264
tp1879
a(I264
I265
tp1880
a(I265
I290
tp1881
a(I290
I288
tp1882
aa(lp1883
(I733
I706
tp1884
a(I706
I681
tp1885
a(I681
I682
tp1886
a(I682
I745
tp1887
a(I745
I733
tp1888
aa(lp1889
(I1140
I1139
tp1890
a(I1139
I1138
tp1891
a(I1138
I1131
tp1892
a(I1131
I1133
tp1893
a(I1133
I1140
tp1894
aa(lp1895
(I1281
I1276
tp1896
a(I1276
I1273
tp1897
a(I1273
I665
tp1898
a(I665
I666
tp1899
a(I666
I1281
tp1900
aa(lp1901
(I1075
I975
tp1902
a(I975
I1119
tp1903
a(I1119
I1241
tp1904
a(I1241
I1319
tp1905
a(I1319
I1075
tp1906
aa(lp1907
(I1291
I1288
tp1908
a(I1288
I1279
tp1909
a(I1279
I1277
tp1910
a(I1277
I1283
tp1911
a(I1283
I1291
tp1912
aa(lp1913
(I1230
I1241
tp1914
a(I1241
I1119
tp1915
a(I1119
I1108
tp1916
a(I1108
I1219
tp1917
a(I1219
I1230
tp1918
aa(lp1919
(I1302
I1303
tp1920
a(I1303
I1311
tp1921
a(I1311
I1310
tp1922
a(I1310
I1307
tp1923
a(I1307
I1302
tp1924
aa(lp1925
(I1217
I1218
tp1926
a(I1218
I1220
tp1927
a(I1220
I1211
tp1928
a(I1211
I1210
tp1929
a(I1210
I1217
tp1930
aa(lp1931
(I1153
I1150
tp1932
a(I1150
I1147
tp1933
a(I1147
I1148
tp1934
a(I1148
I1151
tp1935
a(I1151
I1153
tp1936
aa(lp1937
(I209
I200
tp1938
a(I200
I199
tp1939
a(I199
I203
tp1940
a(I203
I210
tp1941
a(I210
I209
tp1942
aa(lp1943
(I306
I323
tp1944
a(I323
I320
tp1945
a(I320
I322
tp1946
a(I322
I307
tp1947
a(I307
I306
tp1948
aa(lp1949
(I1345
I1364
tp1950
a(I1364
I1362
tp1951
a(I1362
I1353
tp1952
a(I1353
I1344
tp1953
a(I1344
I1345
tp1954
aa(lp1955
(I1115
I1083
tp1956
a(I1083
I1084
tp1957
a(I1084
I1071
tp1958
a(I1071
I1072
tp1959
a(I1072
I1115
tp1960
aa(lp1961
(I630
I644
tp1962
a(I644
I632
tp1963
a(I632
I627
tp1964
a(I627
I625
tp1965
a(I625
I630
tp1966
aa(lp1967
(I232
I239
tp1968
a(I239
I240
tp1969
a(I240
I194
tp1970
a(I194
I192
tp1971
a(I192
I232
tp1972
aa(lp1973
(I1265
I1260
tp1974
a(I1260
I1259
tp1975
a(I1259
I1256
tp1976
a(I1256
I1257
tp1977
a(I1257
I1265
tp1978
aa(lp1979
(I846
I847
tp1980
a(I847
I1313
tp1981
a(I1313
I1312
tp1982
a(I1312
I1304
tp1983
a(I1304
I846
tp1984
aa(lp1985
(I1106
I1107
tp1986
a(I1107
I1095
tp1987
a(I1095
I1092
tp1988
a(I1092
I1105
tp1989
a(I1105
I1106
tp1990
aa(lp1991
(I1145
I863
tp1992
a(I863
I862
tp1993
a(I862
I962
tp1994
a(I962
I963
tp1995
a(I963
I1145
tp1996
aa(lp1997
(I1217
I1210
tp1998
a(I1210
I956
tp1999
a(I956
I947
tp2000
a(I947
I977
tp2001
a(I977
I1217
tp2002
aa(lp2003
(I1247
I1239
tp2004
a(I1239
I1237
tp2005
a(I1237
I1246
tp2006
a(I1246
I1248
tp2007
a(I1248
I1249
tp2008
a(I1249
I1247
tp2009
aa(lp2010
(I1102
I1099
tp2011
a(I1099
I1091
tp2012
a(I1091
I1094
tp2013
a(I1094
I1104
tp2014
a(I1104
I1103
tp2015
a(I1103
I1102
tp2016
aa(lp2017
(I169
I302
tp2018
a(I302
I291
tp2019
a(I291
I446
tp2020
a(I446
I448
tp2021
a(I448
I147
tp2022
a(I147
I169
tp2023
aa(lp2024
(I882
I883
tp2025
a(I883
I898
tp2026
a(I898
I895
tp2027
a(I895
I1256
tp2028
a(I1256
I1259
tp2029
a(I1259
I882
tp2030
aa(lp2031
(I540
I544
tp2032
a(I544
I545
tp2033
a(I545
I546
tp2034
a(I546
I538
tp2035
a(I538
I537
tp2036
a(I537
I540
tp2037
aa(lp2038
(I1293
I1290
tp2039
a(I1290
I1289
tp2040
a(I1289
I1284
tp2041
a(I1284
I1287
tp2042
a(I1287
I1292
tp2043
a(I1292
I1293
tp2044
aa(lp2045
(I1347
I1348
tp2046
a(I1348
I55
tp2047
a(I55
I56
tp2048
a(I56
I1368
tp2049
a(I1368
I1366
tp2050
a(I1366
I1347
tp2051
aa(lp2052
(I1096
I1106
tp2053
a(I1106
I1105
tp2054
a(I1105
I1103
tp2055
a(I1103
I1104
tp2056
a(I1104
I1093
tp2057
a(I1093
I1096
tp2058
aa(lp2059
(I1135
I1134
tp2060
a(I1134
I1136
tp2061
a(I1136
I1117
tp2062
a(I1117
I1116
tp2063
a(I1116
I1128
tp2064
a(I1128
I1135
tp2065
aa(lp2066
(I813
I812
tp2067
a(I812
I643
tp2068
a(I643
I634
tp2069
a(I634
I648
tp2070
a(I648
I814
tp2071
a(I814
I813
tp2072
aa(lp2073
(I1230
I1252
tp2074
a(I1252
I1330
tp2075
a(I1330
I1341
tp2076
a(I1341
I1319
tp2077
a(I1319
I1241
tp2078
a(I1241
I1230
tp2079
aa(lp2080
(I665
I1273
tp2081
a(I1273
I1272
tp2082
a(I1272
I1275
tp2083
a(I1275
I656
tp2084
a(I656
I655
tp2085
a(I655
I665
tp2086
aa(lp2087
(I97
I95
tp2088
a(I95
I616
tp2089
a(I616
I568
tp2090
a(I568
I569
tp2091
a(I569
I96
tp2092
a(I96
I97
tp2093
aa(lp2094
(I1206
I1207
tp2095
a(I1207
I949
tp2096
a(I949
I951
tp2097
a(I951
I1204
tp2098
a(I1204
I1203
tp2099
a(I1203
I1206
tp2100
aa(lp2101
(I451
I448
tp2102
a(I448
I446
tp2103
a(I446
I447
tp2104
a(I447
I449
tp2105
a(I449
I450
tp2106
a(I450
I451
tp2107
aa(lp2108
(I850
I851
tp2109
a(I851
I1309
tp2110
a(I1309
I1301
tp2111
a(I1301
I1302
tp2112
a(I1302
I1307
tp2113
a(I1307
I850
tp2114
aa(lp2115
(I559
I560
tp2116
a(I560
I572
tp2117
a(I572
I571
tp2118
a(I571
I562
tp2119
a(I562
I561
tp2120
a(I561
I559
tp2121
aa(lp2122
(I1172
I1171
tp2123
a(I1171
I1170
tp2124
a(I1170
I989
tp2125
a(I989
I990
tp2126
a(I990
I1169
tp2127
a(I1169
I1172
tp2128
aa(lp2129
(I181
I171
tp2130
a(I171
I163
tp2131
a(I163
I164
tp2132
a(I164
I183
tp2133
a(I183
I184
tp2134
a(I184
I181
tp2135
aa(lp2136
(I1161
I869
tp2137
a(I869
I870
tp2138
a(I870
I1165
tp2139
a(I1165
I1157
tp2140
a(I1157
I1155
tp2141
a(I1155
I1161
tp2142
aa(lp2143
(I528
I512
tp2144
a(I512
I513
tp2145
a(I513
I527
tp2146
a(I527
I526
tp2147
a(I526
I525
tp2148
a(I525
I528
tp2149
aa(lp2150
(I383
I385
tp2151
a(I385
I434
tp2152
a(I434
I433
tp2153
a(I433
I417
tp2154
a(I417
I418
tp2155
a(I418
I383
tp2156
aa(lp2157
(I719
I775
tp2158
a(I775
I110
tp2159
a(I110
I111
tp2160
a(I111
I112
tp2161
a(I112
I742
tp2162
a(I742
I719
tp2163
aa(lp2164
(I1039
I1102
tp2165
a(I1102
I1103
tp2166
a(I1103
I1105
tp2167
a(I1105
I1092
tp2168
a(I1092
I1038
tp2169
a(I1038
I1039
tp2170
aa(lp2171
(I164
I163
tp2172
a(I163
I156
tp2173
a(I156
I155
tp2174
a(I155
I129
tp2175
a(I129
I130
tp2176
a(I130
I164
tp2177
aa(lp2178
(I42
I46
tp2179
a(I46
I29
tp2180
a(I29
I30
tp2181
a(I30
I48
tp2182
a(I48
I40
tp2183
a(I40
I42
tp2184
aa(lp2185
(I286
I263
tp2186
a(I263
I266
tp2187
a(I266
I287
tp2188
a(I287
I283
tp2189
a(I283
I284
tp2190
a(I284
I286
tp2191
aa(lp2192
(I456
I454
tp2193
a(I454
I458
tp2194
a(I458
I467
tp2195
a(I467
I600
tp2196
a(I600
I599
tp2197
a(I599
I456
tp2198
aa(lp2199
(I1048
I960
tp2200
a(I960
I958
tp2201
a(I958
I1017
tp2202
a(I1017
I1025
tp2203
a(I1025
I1036
tp2204
a(I1036
I1048
tp2205
aa(lp2206
(I842
I930
tp2207
a(I930
I642
tp2208
a(I642
I664
tp2209
a(I664
I941
tp2210
a(I941
I830
tp2211
a(I830
I842
tp2212
aa(lp2213
(I1332
I59
tp2214
a(I59
I57
tp2215
a(I57
I55
tp2216
a(I55
I1348
tp2217
a(I1348
I1328
tp2218
a(I1328
I1332
tp2219
aa(lp2220
(I43
I1379
tp2221
a(I1379
I1378
tp2222
a(I1378
I44
tp2223
a(I44
I46
tp2224
a(I46
I42
tp2225
a(I42
I43
tp2226
aa(lp2227
(I53
I52
tp2228
a(I52
I38
tp2229
a(I38
I39
tp2230
a(I39
I12
tp2231
a(I12
I13
tp2232
a(I13
I53
tp2233
aa(lp2234
(I328
I330
tp2235
a(I330
I337
tp2236
a(I337
I139
tp2237
a(I139
I141
tp2238
a(I141
I334
tp2239
a(I334
I328
tp2240
aa(lp2241
(I1202
I1218
tp2242
a(I1218
I1217
tp2243
a(I1217
I977
tp2244
a(I977
I978
tp2245
a(I978
I1201
tp2246
a(I1201
I1202
tp2247
aa(lp2248
(I804
I792
tp2249
a(I792
I791
tp2250
a(I791
I801
tp2251
a(I801
I807
tp2252
a(I807
I803
tp2253
a(I803
I804
tp2254
aa(lp2255
(I1149
I966
tp2256
a(I966
I967
tp2257
a(I967
I1159
tp2258
a(I1159
I1158
tp2259
a(I1158
I1154
tp2260
a(I1154
I1149
tp2261
aa(lp2262
(I309
I311
tp2263
a(I311
I317
tp2264
a(I317
I316
tp2265
a(I316
I318
tp2266
a(I318
I319
tp2267
a(I319
I309
tp2268
aa(lp2269
(I1159
I967
tp2270
a(I967
I970
tp2271
a(I970
I1164
tp2272
a(I1164
I1162
tp2273
a(I1162
I1160
tp2274
a(I1160
I1159
tp2275
aa(lp2276
(I904
I905
tp2277
a(I905
I891
tp2278
a(I891
I893
tp2279
a(I893
I906
tp2280
a(I906
I903
tp2281
a(I903
I904
tp2282
aa(lp2283
(I1308
I36
tp2284
a(I36
I47
tp2285
a(I47
I80
tp2286
a(I80
I91
tp2287
a(I91
I1286
tp2288
a(I1286
I1308
tp2289
aa(lp2290
(I28
I44
tp2291
a(I44
I1378
tp2292
a(I1378
I1381
tp2293
a(I1381
I45
tp2294
a(I45
I27
tp2295
a(I27
I28
tp2296
aa(lp2297
(I570
I558
tp2298
a(I558
I559
tp2299
a(I559
I561
tp2300
a(I561
I503
tp2301
a(I503
I505
tp2302
a(I505
I570
tp2303
aa(lp2304
(I485
I490
tp2305
a(I490
I491
tp2306
a(I491
I488
tp2307
a(I488
I489
tp2308
a(I489
I474
tp2309
a(I474
I485
tp2310
aa(lp2311
(I757
I755
tp2312
a(I755
I761
tp2313
a(I761
I704
tp2314
a(I704
I705
tp2315
a(I705
I809
tp2316
a(I809
I757
tp2317
aa(lp2318
(I1391
I1384
tp2319
a(I1384
I1383
tp2320
a(I1383
I1373
tp2321
a(I1373
I1377
tp2322
a(I1377
I1392
tp2323
a(I1392
I1391
tp2324
aa(lp2325
(I429
I431
tp2326
a(I431
I409
tp2327
a(I409
I411
tp2328
a(I411
I437
tp2329
a(I437
I438
tp2330
a(I438
I429
tp2331
aa(lp2332
(I847
I839
tp2333
a(I839
I850
tp2334
a(I850
I1307
tp2335
a(I1307
I1310
tp2336
a(I1310
I1313
tp2337
a(I1313
I847
tp2338
aa(lp2339
(I516
I512
tp2340
a(I512
I528
tp2341
a(I528
I539
tp2342
a(I539
I554
tp2343
a(I554
I555
tp2344
a(I555
I516
tp2345
aa(lp2346
(I1250
I1248
tp2347
a(I1248
I1246
tp2348
a(I1246
I1223
tp2349
a(I1223
I1225
tp2350
a(I1225
I1251
tp2351
a(I1251
I1250
tp2352
aa(lp2353
(I587
I589
tp2354
a(I589
I595
tp2355
a(I595
I594
tp2356
a(I594
I591
tp2357
a(I591
I592
tp2358
a(I592
I587
tp2359
aa(lp2360
(I148
I150
tp2361
a(I150
I149
tp2362
a(I149
I151
tp2363
a(I151
I124
tp2364
a(I124
I126
tp2365
a(I126
I148
tp2366
aa(lp2367
(I260
I261
tp2368
a(I261
I257
tp2369
a(I257
I254
tp2370
a(I254
I216
tp2371
a(I216
I217
tp2372
a(I217
I260
tp2373
aa(lp2374
(I204
I219
tp2375
a(I219
I218
tp2376
a(I218
I211
tp2377
a(I211
I210
tp2378
a(I210
I203
tp2379
a(I203
I204
tp2380
aa(lp2381
(I868
I869
tp2382
a(I869
I1161
tp2383
a(I1161
I1160
tp2384
a(I1160
I1162
tp2385
a(I1162
I968
tp2386
a(I968
I868
tp2387
aa(lp2388
(I281
I282
tp2389
a(I282
I325
tp2390
a(I325
I312
tp2391
a(I312
I309
tp2392
a(I309
I319
tp2393
a(I319
I281
tp2394
aa(lp2395
(I1216
I1234
tp2396
a(I1234
I1236
tp2397
a(I1236
I1244
tp2398
a(I1244
I1243
tp2399
a(I1243
I1215
tp2400
a(I1215
I1216
tp2401
aa(lp2402
(I213
I708
tp2403
a(I708
I497
tp2404
a(I497
I509
tp2405
a(I509
I269
tp2406
a(I269
I258
tp2407
a(I258
I213
tp2408
aa(lp2409
(I1
I508
tp2410
a(I508
I952
tp2411
a(I952
I1063
tp2412
a(I1063
I224
tp2413
a(I224
I335
tp2414
a(I335
I1
tp2415
aa(lp2416
(I32
I35
tp2417
a(I35
I54
tp2418
a(I54
I50
tp2419
a(I50
I22
tp2420
a(I22
I23
tp2421
a(I23
I32
tp2422
aa(lp2423
(I1205
I1206
tp2424
a(I1206
I1203
tp2425
a(I1203
I943
tp2426
a(I943
I939
tp2427
a(I939
I950
tp2428
a(I950
I1205
tp2429
aa(lp2430
(I403
I406
tp2431
a(I406
I426
tp2432
a(I426
I425
tp2433
a(I425
I423
tp2434
a(I423
I422
tp2435
a(I422
I403
tp2436
aa(lp2437
(I145
I143
tp2438
a(I143
I360
tp2439
a(I360
I113
tp2440
a(I113
I730
tp2441
a(I730
I841
tp2442
a(I841
I145
tp2443
aa(lp2444
(I123
I146
tp2445
a(I146
I333
tp2446
a(I333
I332
tp2447
a(I332
I334
tp2448
a(I334
I141
tp2449
a(I141
I123
tp2450
aa(lp2451
(I583
I584
tp2452
a(I584
I590
tp2453
a(I590
I576
tp2454
a(I576
I573
tp2455
a(I573
I580
tp2456
a(I580
I583
tp2457
aa(lp2458
(I787
I782
tp2459
a(I782
I784
tp2460
a(I784
I795
tp2461
a(I795
I794
tp2462
a(I794
I788
tp2463
a(I788
I787
tp2464
aa(lp2465
(I1174
I2
tp2466
a(I2
I475
tp2467
a(I475
I464
tp2468
a(I464
I442
tp2469
a(I442
I453
tp2470
a(I453
I1174
tp2471
aa(lp2472
(I168
I161
tp2473
a(I161
I156
tp2474
a(I156
I163
tp2475
a(I163
I171
tp2476
a(I171
I170
tp2477
a(I170
I168
tp2478
aa(lp2479
(I1099
I1100
tp2480
a(I1100
I1101
tp2481
a(I1101
I1087
tp2482
a(I1087
I1085
tp2483
a(I1085
I1091
tp2484
a(I1091
I1099
tp2485
aa(lp2486
(I454
I452
tp2487
a(I452
I402
tp2488
a(I402
I424
tp2489
a(I424
I459
tp2490
a(I459
I458
tp2491
a(I458
I454
tp2492
aa(lp2493
(I934
I933
tp2494
a(I933
I938
tp2495
a(I938
I913
tp2496
a(I913
I907
tp2497
a(I907
I915
tp2498
a(I915
I934
tp2499
aa(lp2500
(I694
I674
tp2501
a(I674
I676
tp2502
a(I676
I709
tp2503
a(I709
I707
tp2504
a(I707
I713
tp2505
a(I713
I694
tp2506
aa(lp2507
(I1158
I1159
tp2508
a(I1159
I1160
tp2509
a(I1160
I1161
tp2510
a(I1161
I1155
tp2511
a(I1155
I1156
tp2512
a(I1156
I1158
tp2513
aa(lp2514
(I0
I508
tp2515
a(I508
I1
tp2516
a(I1
I619
tp2517
a(I619
I841
tp2518
a(I841
I730
tp2519
a(I730
I0
tp2520
aa(lp2521
(I220
I218
tp2522
a(I218
I219
tp2523
a(I219
I221
tp2524
a(I221
I223
tp2525
a(I223
I222
tp2526
a(I222
I220
tp2527
aa(lp2528
(I142
I355
tp2529
a(I355
I357
tp2530
a(I357
I359
tp2531
a(I359
I360
tp2532
a(I360
I143
tp2533
a(I143
I142
tp2534
aa(lp2535
(I1327
I1369
tp2536
a(I1369
I56
tp2537
a(I56
I55
tp2538
a(I55
I57
tp2539
a(I57
I1329
tp2540
a(I1329
I1327
tp2541
aa(lp2542
(I1353
I1362
tp2543
a(I1362
I1370
tp2544
a(I1370
I60
tp2545
a(I60
I61
tp2546
a(I61
I1354
tp2547
a(I1354
I1353
tp2548
aa(lp2549
(I1219
I1108
tp2550
a(I1108
I1130
tp2551
a(I1130
I1141
tp2552
a(I1141
I997
tp2553
a(I997
I1008
tp2554
a(I1008
I1219
tp2555
aa(lp2556
(I299
I298
tp2557
a(I298
I341
tp2558
a(I341
I345
tp2559
a(I345
I342
tp2560
a(I342
I343
tp2561
a(I343
I344
tp2562
a(I344
I299
tp2563
aa(lp2564
(I831
I829
tp2565
a(I829
I826
tp2566
a(I826
I825
tp2567
a(I825
I611
tp2568
a(I611
I612
tp2569
a(I612
I832
tp2570
a(I832
I831
tp2571
aa(lp2572
(I1194
I1202
tp2573
a(I1202
I1201
tp2574
a(I1201
I973
tp2575
a(I973
I974
tp2576
a(I974
I1191
tp2577
a(I1191
I1189
tp2578
a(I1189
I1194
tp2579
aa(lp2580
(I931
I932
tp2581
a(I932
I933
tp2582
a(I933
I934
tp2583
a(I934
I935
tp2584
a(I935
I937
tp2585
a(I937
I936
tp2586
a(I936
I931
tp2587
aa(lp2588
(I529
I530
tp2589
a(I530
I532
tp2590
a(I532
I518
tp2591
a(I518
I519
tp2592
a(I519
I525
tp2593
a(I525
I526
tp2594
a(I526
I529
tp2595
aa(lp2596
(I897
I631
tp2597
a(I631
I653
tp2598
a(I653
I908
tp2599
a(I908
I919
tp2600
a(I919
I808
tp2601
a(I808
I819
tp2602
a(I819
I897
tp2603
aa(lp2604
(I750
I702
tp2605
a(I702
I706
tp2606
a(I706
I733
tp2607
a(I733
I735
tp2608
a(I735
I749
tp2609
a(I749
I748
tp2610
a(I748
I750
tp2611
aa(lp2612
(I1352
I1363
tp2613
a(I1363
I1330
tp2614
a(I1330
I1252
tp2615
a(I1252
I1274
tp2616
a(I1274
I14
tp2617
a(I14
I3
tp2618
a(I3
I1352
tp2619
aa(lp2620
(I564
I115
tp2621
a(I115
I122
tp2622
a(I122
I121
tp2623
a(I121
I120
tp2624
a(I120
I117
tp2625
a(I117
I575
tp2626
a(I575
I564
tp2627
aa(lp2628
(I1325
I1324
tp2629
a(I1324
I1323
tp2630
a(I1323
I1315
tp2631
a(I1315
I1314
tp2632
a(I1314
I1320
tp2633
a(I1320
I1326
tp2634
a(I1326
I1325
tp2635
aa(lp2636
(I765
I741
tp2637
a(I741
I743
tp2638
a(I743
I778
tp2639
a(I778
I772
tp2640
a(I772
I773
tp2641
a(I773
I777
tp2642
a(I777
I765
tp2643
aa(lp2644
(I25
I3
tp2645
a(I3
I14
tp2646
a(I14
I1263
tp2647
a(I1263
I1297
tp2648
a(I1297
I91
tp2649
a(I91
I80
tp2650
a(I80
I25
tp2651
aa(lp2652
(I998
I1168
tp2653
a(I1168
I1012
tp2654
a(I1012
I1015
tp2655
a(I1015
I1166
tp2656
a(I1166
I1167
tp2657
a(I1167
I996
tp2658
a(I996
I998
tp2659
aa(lp2660
(I1049
I1061
tp2661
a(I1061
I1060
tp2662
a(I1060
I1034
tp2663
a(I1034
I983
tp2664
a(I983
I984
tp2665
a(I984
I1047
tp2666
a(I1047
I1049
tp2667
aa(lp2668
(I1176
I1173
tp2669
a(I1173
I1177
tp2670
a(I1177
I1169
tp2671
a(I1169
I990
tp2672
a(I990
I985
tp2673
a(I985
I1002
tp2674
a(I1002
I1176
tp2675
aa(lp2676
(I1017
I1018
tp2677
a(I1018
I1022
tp2678
a(I1022
I1023
tp2679
a(I1023
I1024
tp2680
a(I1024
I1026
tp2681
a(I1026
I1025
tp2682
a(I1025
I1017
tp2683
aa(lp2684
(I1156
I1155
tp2685
a(I1155
I1157
tp2686
a(I1157
I1151
tp2687
a(I1151
I1148
tp2688
a(I1148
I1149
tp2689
a(I1149
I1154
tp2690
a(I1154
I1156
tp2691
aa(lp2692
(I381
I428
tp2693
a(I428
I432
tp2694
a(I432
I433
tp2695
a(I433
I434
tp2696
a(I434
I436
tp2697
a(I436
I382
tp2698
a(I382
I381
tp2699
aa(lp2700
(I286
I284
tp2701
a(I284
I285
tp2702
a(I285
I271
tp2703
a(I271
I273
tp2704
a(I273
I288
tp2705
a(I288
I289
tp2706
a(I289
I286
tp2707
aa(lp2708
(I636
I637
tp2709
a(I637
I652
tp2710
a(I652
I651
tp2711
a(I651
I650
tp2712
a(I650
I649
tp2713
a(I649
I654
tp2714
a(I654
I636
tp2715
aa(lp2716
(I519
I521
tp2717
a(I521
I537
tp2718
a(I537
I538
tp2719
a(I538
I539
tp2720
a(I539
I528
tp2721
a(I528
I525
tp2722
a(I525
I519
tp2723
aa(lp2724
(I989
I1170
tp2725
a(I1170
I1180
tp2726
a(I1180
I1183
tp2727
a(I1183
I1184
tp2728
a(I1184
I1190
tp2729
a(I1190
I991
tp2730
a(I991
I989
tp2731
aa(lp2732
(I185
I186
tp2733
a(I186
I187
tp2734
a(I187
I188
tp2735
a(I188
I189
tp2736
a(I189
I184
tp2737
a(I184
I183
tp2738
a(I183
I185
tp2739
aa(lp2740
(I1393
I1394
tp2741
a(I1394
I1395
tp2742
a(I1395
I12
tp2743
a(I12
I39
tp2744
a(I39
I1382
tp2745
a(I1382
I1375
tp2746
a(I1375
I1393
tp2747
aa(lp2748
(I306
I278
tp2749
a(I278
I279
tp2750
a(I279
I318
tp2751
a(I318
I316
tp2752
a(I316
I321
tp2753
a(I321
I323
tp2754
a(I323
I306
tp2755
aa(lp2756
(I1267
I1268
tp2757
a(I1268
I1198
tp2758
a(I1198
I885
tp2759
a(I885
I887
tp2760
a(I887
I1264
tp2761
a(I1264
I1261
tp2762
a(I1261
I1267
tp2763
aa(lp2764
(I776
I770
tp2765
a(I770
I763
tp2766
a(I763
I766
tp2767
a(I766
I773
tp2768
a(I773
I772
tp2769
a(I772
I774
tp2770
a(I774
I776
tp2771
aa(lp2772
(I1005
I1021
tp2773
a(I1021
I1142
tp2774
a(I1142
I1143
tp2775
a(I1143
I1167
tp2776
a(I1167
I1166
tp2777
a(I1166
I1011
tp2778
a(I1011
I1005
tp2779
aa(lp2780
(I180
I191
tp2781
a(I191
I617
tp2782
a(I617
I618
tp2783
a(I618
I621
tp2784
a(I621
I622
tp2785
a(I622
I623
tp2786
a(I623
I180
tp2787
aa(lp2788
(I82
I83
tp2789
a(I83
I93
tp2790
a(I93
I90
tp2791
a(I90
I89
tp2792
a(I89
I1360
tp2793
a(I1360
I1361
tp2794
a(I1361
I82
tp2795
aa(lp2796
(I65
I66
tp2797
a(I66
I67
tp2798
a(I67
I61
tp2799
a(I61
I60
tp2800
a(I60
I63
tp2801
a(I63
I64
tp2802
a(I64
I65
tp2803
aa(lp2804
(I249
I270
tp2805
a(I270
I272
tp2806
a(I272
I285
tp2807
a(I285
I284
tp2808
a(I284
I283
tp2809
a(I283
I242
tp2810
a(I242
I249
tp2811
aa(lp2812
(I370
I352
tp2813
a(I352
I354
tp2814
a(I354
I374
tp2815
a(I374
I372
tp2816
a(I372
I371
tp2817
a(I371
I368
tp2818
a(I368
I370
tp2819
aa(lp2820
(I1278
I1280
tp2821
a(I1280
I1272
tp2822
a(I1272
I1273
tp2823
a(I1273
I1276
tp2824
a(I1276
I1277
tp2825
a(I1277
I1279
tp2826
a(I1279
I1278
tp2827
aa(lp2828
(I618
I94
tp2829
a(I94
I1271
tp2830
a(I1271
I615
tp2831
a(I615
I616
tp2832
a(I616
I95
tp2833
a(I95
I621
tp2834
a(I621
I618
tp2835
aa(lp2836
(I456
I457
tp2837
a(I457
I455
tp2838
a(I455
I451
tp2839
a(I451
I450
tp2840
a(I450
I452
tp2841
a(I452
I454
tp2842
a(I454
I456
tp2843
aa(lp2844
(I1350
I1356
tp2845
a(I1356
I1358
tp2846
a(I1358
I85
tp2847
a(I85
I84
tp2848
a(I84
I78
tp2849
a(I78
I1349
tp2850
a(I1349
I1350
tp2851
aa(lp2852
(I1203
I1204
tp2853
a(I1204
I948
tp2854
a(I948
I936
tp2855
a(I936
I937
tp2856
a(I937
I942
tp2857
a(I942
I943
tp2858
a(I943
I1203
tp2859
aa(lp2860
(I495
I496
tp2861
a(I496
I556
tp2862
a(I556
I555
tp2863
a(I555
I554
tp2864
a(I554
I552
tp2865
a(I552
I548
tp2866
a(I548
I495
tp2867
aa(lp2868
(I517
I483
tp2869
a(I483
I476
tp2870
a(I476
I494
tp2871
a(I494
I524
tp2872
a(I524
I522
tp2873
a(I522
I523
tp2874
a(I523
I517
tp2875
aa(lp2876
(I660
I658
tp2877
a(I658
I678
tp2878
a(I678
I820
tp2879
a(I820
I827
tp2880
a(I827
I833
tp2881
a(I833
I834
tp2882
a(I834
I660
tp2883
aa(lp2884
(I1
I335
tp2885
a(I335
I575
tp2886
a(I575
I117
tp2887
a(I117
I119
tp2888
a(I119
I118
tp2889
a(I118
I619
tp2890
a(I619
I1
tp2891
aa(lp2892
(I313
I336
tp2893
a(I336
I324
tp2894
a(I324
I280
tp2895
a(I280
I269
tp2896
a(I269
I509
tp2897
a(I509
I520
tp2898
a(I520
I313
tp2899
aa(lp2900
(I540
I537
tp2901
a(I537
I521
tp2902
a(I521
I517
tp2903
a(I517
I523
tp2904
a(I523
I543
tp2905
a(I543
I541
tp2906
a(I541
I540
tp2907
aa(lp2908
(I588
I592
tp2909
a(I592
I591
tp2910
a(I591
I593
tp2911
a(I593
I566
tp2912
a(I566
I563
tp2913
a(I563
I574
tp2914
a(I574
I588
tp2915
aa(lp2916
(I250
I135
tp2917
a(I135
I134
tp2918
a(I134
I274
tp2919
a(I274
I293
tp2920
a(I293
I294
tp2921
a(I294
I295
tp2922
a(I295
I250
tp2923
aa(lp2924
(I542
I475
tp2925
a(I475
I2
tp2926
a(I2
I113
tp2927
a(I113
I360
tp2928
a(I360
I359
tp2929
a(I359
I598
tp2930
a(I598
I542
tp2931
aa(lp2932
(I645
I633
tp2933
a(I633
I632
tp2934
a(I632
I644
tp2935
a(I644
I604
tp2936
a(I604
I606
tp2937
a(I606
I646
tp2938
a(I646
I645
tp2939
aa(lp2940
(I1267
I1261
tp2941
a(I1261
I1262
tp2942
a(I1262
I1265
tp2943
a(I1265
I1257
tp2944
a(I1257
I1258
tp2945
a(I1258
I1266
tp2946
a(I1266
I1267
tp2947
aa(lp2948
(I1261
I1264
tp2949
a(I1264
I884
tp2950
a(I884
I882
tp2951
a(I882
I1259
tp2952
a(I1259
I1260
tp2953
a(I1260
I1262
tp2954
a(I1262
I1261
tp2955
aa(lp2956
(I114
I1163
tp2957
a(I1163
I697
tp2958
a(I697
I708
tp2959
a(I708
I213
tp2960
a(I213
I225
tp2961
a(I225
I102
tp2962
a(I102
I114
tp2963
aa(lp2964
(I1296
I1298
tp2965
a(I1298
I1294
tp2966
a(I1294
I1292
tp2967
a(I1292
I1287
tp2968
a(I1287
I843
tp2969
a(I843
I845
tp2970
a(I845
I1295
tp2971
a(I1295
I1296
tp2972
aa(lp2973
(I490
I582
tp2974
a(I582
I579
tp2975
a(I579
I572
tp2976
a(I572
I560
tp2977
a(I560
I556
tp2978
a(I556
I496
tp2979
a(I496
I491
tp2980
a(I491
I490
tp2981
aa(lp2982
(I564
I575
tp2983
a(I575
I335
tp2984
a(I335
I224
tp2985
a(I224
I442
tp2986
a(I442
I464
tp2987
a(I464
I486
tp2988
a(I486
I553
tp2989
a(I553
I564
tp2990
aa(lp2991
(I775
I719
tp2992
a(I719
I731
tp2993
a(I731
I597
tp2994
a(I597
I620
tp2995
a(I620
I764
tp2996
a(I764
I753
tp2997
a(I753
I786
tp2998
a(I786
I775
tp2999
aa(lp3000
(I308
I305
tp3001
a(I305
I304
tp3002
a(I304
I303
tp3003
a(I303
I277
tp3004
a(I277
I278
tp3005
a(I278
I306
tp3006
a(I306
I307
tp3007
a(I307
I308
tp3008
aa(lp3009
(I166
I179
tp3010
a(I179
I390
tp3011
a(I390
I392
tp3012
a(I392
I393
tp3013
a(I393
I377
tp3014
a(I377
I162
tp3015
a(I162
I157
tp3016
a(I157
I166
tp3017
aa(lp3018
(I349
I345
tp3019
a(I345
I341
tp3020
a(I341
I339
tp3021
a(I339
I340
tp3022
a(I340
I346
tp3023
a(I346
I348
tp3024
a(I348
I350
tp3025
a(I350
I349
tp3026
aa(lp3027
(I184
I189
tp3028
a(I189
I366
tp3029
a(I366
I173
tp3030
a(I173
I176
tp3031
a(I176
I388
tp3032
a(I388
I182
tp3033
a(I182
I181
tp3034
a(I181
I184
tp3035
aa(lp3036
(I817
I813
tp3037
a(I813
I814
tp3038
a(I814
I647
tp3039
a(I647
I607
tp3040
a(I607
I609
tp3041
a(I609
I815
tp3042
a(I815
I816
tp3043
a(I816
I817
tp3044
aa(lp3045
(I915
I916
tp3046
a(I916
I940
tp3047
a(I940
I939
tp3048
a(I939
I943
tp3049
a(I943
I942
tp3050
a(I942
I935
tp3051
a(I935
I934
tp3052
a(I934
I915
tp3053
aa(lp3054
(I1392
I1377
tp3055
a(I1377
I1380
tp3056
a(I1380
I43
tp3057
a(I43
I42
tp3058
a(I42
I40
tp3059
a(I40
I41
tp3060
a(I41
I26
tp3061
a(I26
I1392
tp3062
aa(lp3063
(I341
I298
tp3064
a(I298
I297
tp3065
a(I297
I303
tp3066
a(I303
I304
tp3067
a(I304
I315
tp3068
a(I315
I338
tp3069
a(I338
I339
tp3070
a(I339
I341
tp3071
aa(lp3072
(I1148
I1147
tp3073
a(I1147
I866
tp3074
a(I866
I865
tp3075
a(I865
I1146
tp3076
a(I1146
I965
tp3077
a(I965
I966
tp3078
a(I966
I1149
tp3079
a(I1149
I1148
tp3080
aa(lp3081
(I514
I511
tp3082
a(I511
I518
tp3083
a(I518
I532
tp3084
a(I532
I536
tp3085
a(I536
I534
tp3086
a(I534
I533
tp3087
a(I533
I535
tp3088
a(I535
I514
tp3089
aa(lp3090
(I821
I822
tp3091
a(I822
I820
tp3092
a(I820
I678
tp3093
a(I678
I677
tp3094
a(I677
I812
tp3095
a(I812
I813
tp3096
a(I813
I817
tp3097
a(I817
I821
tp3098
aa(lp3099
(I836
I835
tp3100
a(I835
I833
tp3101
a(I833
I827
tp3102
a(I827
I826
tp3103
a(I826
I829
tp3104
a(I829
I838
tp3105
a(I838
I837
tp3106
a(I837
I836
tp3107
aa(lp3108
(I1130
I1108
tp3109
a(I1108
I1119
tp3110
a(I1119
I975
tp3111
a(I975
I964
tp3112
a(I964
I675
tp3113
a(I675
I686
tp3114
a(I686
I1097
tp3115
a(I1097
I1130
tp3116
aa(lp3117
(I1021
I1005
tp3118
a(I1005
I1006
tp3119
a(I1006
I1018
tp3120
a(I1018
I1017
tp3121
a(I1017
I958
tp3122
a(I958
I961
tp3123
a(I961
I1020
tp3124
a(I1020
I1021
tp3125
aa(lp3126
(I1045
I1046
tp3127
a(I1046
I1085
tp3128
a(I1085
I1087
tp3129
a(I1087
I1088
tp3130
a(I1088
I1089
tp3131
a(I1089
I1090
tp3132
a(I1090
I1082
tp3133
a(I1082
I1045
tp3134
aa(lp3135
(I1063
I952
tp3136
a(I952
I0
tp3137
a(I0
I730
tp3138
a(I730
I113
tp3139
a(I113
I2
tp3140
a(I2
I1174
tp3141
a(I1174
I1285
tp3142
a(I1285
I1063
tp3143
aa(lp3144
(I362
I367
tp3145
a(I367
I348
tp3146
a(I348
I346
tp3147
a(I346
I353
tp3148
a(I353
I370
tp3149
a(I370
I368
tp3150
a(I368
I361
tp3151
a(I361
I362
tp3152
aa(lp3153
(I878
I879
tp3154
a(I879
I899
tp3155
a(I899
I900
tp3156
a(I900
I902
tp3157
a(I902
I904
tp3158
a(I904
I903
tp3159
a(I903
I889
tp3160
a(I889
I878
tp3161
aa(lp3162
(I89
I90
tp3163
a(I90
I92
tp3164
a(I92
I81
tp3165
a(I81
I79
tp3166
a(I79
I86
tp3167
a(I86
I87
tp3168
a(I87
I88
tp3169
a(I88
I89
tp3170
aa(lp3171
(I1229
I1228
tp3172
a(I1228
I1212
tp3173
a(I1212
I1211
tp3174
a(I1211
I1220
tp3175
a(I1220
I1222
tp3176
a(I1222
I1231
tp3177
a(I1231
I1227
tp3178
a(I1227
I1229
tp3179
aa(lp3180
(I346
I340
tp3181
a(I340
I121
tp3182
a(I121
I122
tp3183
a(I122
I351
tp3184
a(I351
I354
tp3185
a(I354
I352
tp3186
a(I352
I353
tp3187
a(I353
I346
tp3188
aa(lp3189
(I519
I518
tp3190
a(I518
I511
tp3191
a(I511
I510
tp3192
a(I510
I482
tp3193
a(I482
I483
tp3194
a(I483
I517
tp3195
a(I517
I521
tp3196
a(I521
I519
tp3197
aa(lp3198
(I312
I314
tp3199
a(I314
I315
tp3200
a(I315
I304
tp3201
a(I304
I305
tp3202
a(I305
I310
tp3203
a(I310
I311
tp3204
a(I311
I309
tp3205
a(I309
I312
tp3206
aa(lp3207
(I531
I520
tp3208
a(I520
I509
tp3209
a(I509
I497
tp3210
a(I497
I486
tp3211
a(I486
I464
tp3212
a(I464
I475
tp3213
a(I475
I542
tp3214
a(I542
I531
tp3215
aa(lp3216
(I991
I979
tp3217
a(I979
I981
tp3218
a(I981
I988
tp3219
a(I988
I987
tp3220
a(I987
I985
tp3221
a(I985
I990
tp3222
a(I990
I989
tp3223
a(I989
I991
tp3224
aa(lp3225
(I1341
I1363
tp3226
a(I1363
I1352
tp3227
a(I1352
I1374
tp3228
a(I1374
I1385
tp3229
a(I1385
I1019
tp3230
a(I1019
I1075
tp3231
a(I1075
I1319
tp3232
a(I1319
I1341
tp3233
aa(lp3234
(I11
I10
tp3235
a(I10
I21
tp3236
a(I21
I22
tp3237
a(I22
I50
tp3238
a(I50
I51
tp3239
a(I51
I52
tp3240
a(I52
I53
tp3241
a(I53
I11
tp3242
aa(lp3243
(I607
I647
tp3244
a(I647
I648
tp3245
a(I648
I634
tp3246
a(I634
I635
tp3247
a(I635
I645
tp3248
a(I645
I646
tp3249
a(I646
I605
tp3250
a(I605
I607
tp3251
aa(lp3252
(I253
I255
tp3253
a(I255
I256
tp3254
a(I256
I201
tp3255
a(I201
I200
tp3256
a(I200
I209
tp3257
a(I209
I216
tp3258
a(I216
I254
tp3259
a(I254
I253
tp3260
aa(lp3261
(I435
I443
tp3262
a(I443
I468
tp3263
a(I468
I472
tp3264
a(I472
I469
tp3265
a(I469
I471
tp3266
a(I471
I470
tp3267
a(I470
I460
tp3268
a(I460
I435
tp3269
aa(lp3270
(I422
I423
tp3271
a(I423
I392
tp3272
a(I392
I390
tp3273
a(I390
I398
tp3274
a(I398
I420
tp3275
a(I420
I419
tp3276
a(I419
I421
tp3277
a(I421
I422
tp3278
aa(lp3279
(I718
I721
tp3280
a(I721
I720
tp3281
a(I720
I722
tp3282
a(I722
I680
tp3283
a(I680
I685
tp3284
a(I685
I716
tp3285
a(I716
I717
tp3286
a(I717
I718
tp3287
aa(lp3288
(I5
I4
tp3289
a(I4
I1388
tp3290
a(I1388
I1390
tp3291
a(I1390
I16
tp3292
a(I16
I15
tp3293
a(I15
I17
tp3294
a(I17
I18
tp3295
a(I18
I5
tp3296
aa(lp3297
(I233
I235
tp3298
a(I235
I208
tp3299
a(I208
I193
tp3300
a(I193
I195
tp3301
a(I195
I238
tp3302
a(I238
I237
tp3303
a(I237
I234
tp3304
a(I234
I233
tp3305
aa(lp3306
(I212
I214
tp3307
a(I214
I215
tp3308
a(I215
I217
tp3309
a(I217
I216
tp3310
a(I216
I209
tp3311
a(I209
I210
tp3312
a(I210
I211
tp3313
a(I211
I212
tp3314
aa(lp3315
(I1024
I1029
tp3316
a(I1029
I1040
tp3317
a(I1040
I1039
tp3318
a(I1039
I1038
tp3319
a(I1038
I1037
tp3320
a(I1037
I1035
tp3321
a(I1035
I1026
tp3322
a(I1026
I1024
tp3323
aa(lp3324
(I321
I316
tp3325
a(I316
I317
tp3326
a(I317
I310
tp3327
a(I310
I305
tp3328
a(I305
I308
tp3329
a(I308
I322
tp3330
a(I322
I320
tp3331
a(I320
I321
tp3332
aa(lp3333
(I3
I25
tp3334
a(I25
I47
tp3335
a(I47
I36
tp3336
a(I36
I58
tp3337
a(I58
I69
tp3338
a(I69
I1374
tp3339
a(I1374
I1352
tp3340
a(I1352
I3
tp3341
aa(lp3342
(I516
I507
tp3343
a(I507
I510
tp3344
a(I510
I511
tp3345
a(I511
I514
tp3346
a(I514
I515
tp3347
a(I515
I513
tp3348
a(I513
I512
tp3349
a(I512
I516
tp3350
aa(lp3351
(I1134
I1135
tp3352
a(I1135
I1137
tp3353
a(I1137
I1127
tp3354
a(I1127
I1131
tp3355
a(I1131
I1138
tp3356
a(I1138
I1123
tp3357
a(I1123
I1126
tp3358
a(I1126
I1134
tp3359
aa(lp3360
(I915
I907
tp3361
a(I907
I909
tp3362
a(I909
I880
tp3363
a(I880
I858
tp3364
a(I858
I859
tp3365
a(I859
I917
tp3366
a(I917
I916
tp3367
a(I916
I915
tp3368
aa(lp3369
(I1227
I1231
tp3370
a(I1231
I1221
tp3371
a(I1221
I1223
tp3372
a(I1223
I1246
tp3373
a(I1246
I1237
tp3374
a(I1237
I1238
tp3375
a(I1238
I1245
tp3376
a(I1245
I1227
tp3377
aa(lp3378
(I574
I577
tp3379
a(I577
I584
tp3380
a(I584
I583
tp3381
a(I583
I585
tp3382
a(I585
I589
tp3383
a(I589
I587
tp3384
a(I587
I588
tp3385
a(I588
I574
tp3386
aa(lp3387
(I258
I269
tp3388
a(I269
I280
tp3389
a(I280
I291
tp3390
a(I291
I302
tp3391
a(I302
I136
tp3392
a(I136
I102
tp3393
a(I102
I225
tp3394
a(I225
I258
tp3395
aa(lp3396
(I552
I554
tp3397
a(I554
I539
tp3398
a(I539
I538
tp3399
a(I538
I546
tp3400
a(I546
I557
tp3401
a(I557
I549
tp3402
a(I549
I551
tp3403
a(I551
I552
tp3404
aa(lp3405
(I347
I380
tp3406
a(I380
I447
tp3407
a(I447
I446
tp3408
a(I446
I291
tp3409
a(I291
I280
tp3410
a(I280
I324
tp3411
a(I324
I445
tp3412
a(I445
I347
tp3413
aa(lp3414
(I1099
I1102
tp3415
a(I1102
I1039
tp3416
a(I1039
I1040
tp3417
a(I1040
I1109
tp3418
a(I1109
I1028
tp3419
a(I1028
I1033
tp3420
a(I1033
I1110
tp3421
a(I1110
I1100
tp3422
a(I1100
I1099
tp3423
aa(lp3424
(I202
I624
tp3425
a(I624
I625
tp3426
a(I625
I627
tp3427
a(I627
I626
tp3428
a(I626
I628
tp3429
a(I628
I629
tp3430
a(I629
I617
tp3431
a(I617
I191
tp3432
a(I191
I202
tp3433
aa(lp3434
(I490
I485
tp3435
a(I485
I473
tp3436
a(I473
I487
tp3437
a(I487
I595
tp3438
a(I595
I589
tp3439
a(I589
I585
tp3440
a(I585
I581
tp3441
a(I581
I582
tp3442
a(I582
I490
tp3443
aa(lp3444
(I232
I192
tp3445
a(I192
I196
tp3446
a(I196
I214
tp3447
a(I214
I212
tp3448
a(I212
I220
tp3449
a(I220
I222
tp3450
a(I222
I227
tp3451
a(I227
I231
tp3452
a(I231
I232
tp3453
aa(lp3454
(I1214
I1215
tp3455
a(I1215
I1243
tp3456
a(I1243
I1232
tp3457
a(I1232
I1233
tp3458
a(I1233
I1240
tp3459
a(I1240
I924
tp3460
a(I924
I928
tp3461
a(I928
I1242
tp3462
a(I1242
I1214
tp3463
aa(lp3464
(I1337
I1324
tp3465
a(I1324
I1325
tp3466
a(I1325
I75
tp3467
a(I75
I71
tp3468
a(I71
I70
tp3469
a(I70
I72
tp3470
a(I72
I73
tp3471
a(I73
I74
tp3472
a(I74
I1337
tp3473
aa(lp3474
(I331
I326
tp3475
a(I326
I333
tp3476
a(I333
I146
tp3477
a(I146
I120
tp3478
a(I120
I121
tp3479
a(I121
I340
tp3480
a(I340
I339
tp3481
a(I339
I338
tp3482
a(I338
I331
tp3483
aa(lp3484
(I1076
I1044
tp3485
a(I1044
I1045
tp3486
a(I1045
I1082
tp3487
a(I1082
I1070
tp3488
a(I1070
I1073
tp3489
a(I1073
I1084
tp3490
a(I1084
I1083
tp3491
a(I1083
I1077
tp3492
a(I1077
I1076
tp3493
aa(lp3494
(I1284
I1282
tp3495
a(I1282
I1283
tp3496
a(I1283
I1277
tp3497
a(I1277
I1276
tp3498
a(I1276
I1281
tp3499
a(I1281
I840
tp3500
a(I840
I843
tp3501
a(I843
I1287
tp3502
a(I1287
I1284
tp3503
aa(lp3504
(I860
I859
tp3505
a(I859
I858
tp3506
a(I858
I857
tp3507
a(I857
I861
tp3508
a(I861
I848
tp3509
a(I848
I837
tp3510
a(I837
I838
tp3511
a(I838
I856
tp3512
a(I856
I860
tp3513
aa(lp3514
(I97
I98
tp3515
a(I98
I99
tp3516
a(I99
I106
tp3517
a(I106
I104
tp3518
a(I104
I105
tp3519
a(I105
I622
tp3520
a(I622
I621
tp3521
a(I621
I95
tp3522
a(I95
I97
tp3523
aa(lp3524
(I154
I155
tp3525
a(I155
I156
tp3526
a(I156
I161
tp3527
a(I161
I160
tp3528
a(I160
I159
tp3529
a(I159
I157
tp3530
a(I157
I162
tp3531
a(I162
I153
tp3532
a(I153
I154
tp3533
aa(lp3534
(I871
I873
tp3535
a(I873
I1182
tp3536
a(I1182
I1181
tp3537
a(I1181
I1184
tp3538
a(I1184
I1183
tp3539
a(I1183
I1179
tp3540
a(I1179
I1178
tp3541
a(I1178
I1144
tp3542
a(I1144
I871
tp3543
aa(lp3544
(I1057
I1069
tp3545
a(I1069
I1068
tp3546
a(I1068
I1067
tp3547
a(I1067
I1072
tp3548
a(I1072
I1071
tp3549
a(I1071
I1073
tp3550
a(I1073
I1070
tp3551
a(I1070
I1054
tp3552
a(I1054
I1057
tp3553
aa(lp3554
(I178
I389
tp3555
a(I389
I394
tp3556
a(I394
I396
tp3557
a(I396
I395
tp3558
a(I395
I397
tp3559
a(I397
I398
tp3560
a(I398
I390
tp3561
a(I390
I179
tp3562
a(I179
I178
tp3563
aa(lp3564
(I223
I226
tp3565
a(I226
I205
tp3566
a(I205
I207
tp3567
a(I207
I230
tp3568
a(I230
I229
tp3569
a(I229
I228
tp3570
a(I228
I227
tp3571
a(I227
I222
tp3572
a(I222
I223
tp3573
aa(lp3574
(I983
I982
tp3575
a(I982
I980
tp3576
a(I980
I981
tp3577
a(I981
I979
tp3578
a(I979
I971
tp3579
a(I971
I957
tp3580
a(I957
I959
tp3581
a(I959
I984
tp3582
a(I984
I983
tp3583
aa(lp3584
(I555
I556
tp3585
a(I556
I560
tp3586
a(I560
I559
tp3587
a(I559
I558
tp3588
a(I558
I501
tp3589
a(I501
I500
tp3590
a(I500
I507
tp3591
a(I507
I516
tp3592
a(I516
I555
tp3593
aa(lp3594
(I766
I763
tp3595
a(I763
I762
tp3596
a(I762
I759
tp3597
a(I759
I756
tp3598
a(I756
I740
tp3599
a(I740
I741
tp3600
a(I741
I765
tp3601
a(I765
I767
tp3602
a(I767
I766
tp3603
aa(lp3604
(I1117
I1120
tp3605
a(I1120
I1118
tp3606
a(I1118
I1115
tp3607
a(I1115
I1072
tp3608
a(I1072
I1067
tp3609
a(I1067
I1080
tp3610
a(I1080
I1121
tp3611
a(I1121
I1116
tp3612
a(I1116
I1117
tp3613
aa(lp3614
(I717
I716
tp3615
a(I716
I679
tp3616
a(I679
I640
tp3617
a(I640
I639
tp3618
a(I639
I687
tp3619
a(I687
I696
tp3620
a(I696
I700
tp3621
a(I700
I701
tp3622
a(I701
I717
tp3623
aa(lp3624
(I1178
I1179
tp3625
a(I1179
I1180
tp3626
a(I1180
I1170
tp3627
a(I1170
I1171
tp3628
a(I1171
I1173
tp3629
a(I1173
I1176
tp3630
a(I1176
I1001
tp3631
a(I1001
I1003
tp3632
a(I1003
I1178
tp3633
aa(lp3634
(I804
I803
tp3635
a(I803
I806
tp3636
a(I806
I805
tp3637
a(I805
I800
tp3638
a(I800
I769
tp3639
a(I769
I768
tp3640
a(I768
I771
tp3641
a(I771
I793
tp3642
a(I793
I804
tp3643
aa(lp3644
(I96
I569
tp3645
a(I569
I567
tp3646
a(I567
I596
tp3647
a(I596
I103
tp3648
a(I103
I101
tp3649
a(I101
I100
tp3650
a(I100
I99
tp3651
a(I99
I98
tp3652
a(I98
I96
tp3653
aa(lp3654
(I493
I492
tp3655
a(I492
I488
tp3656
a(I488
I491
tp3657
a(I491
I496
tp3658
a(I496
I495
tp3659
a(I495
I494
tp3660
a(I494
I476
tp3661
a(I476
I477
tp3662
a(I477
I493
tp3663
aa(lp3664
(I710
I711
tp3665
a(I711
I712
tp3666
a(I712
I689
tp3667
a(I689
I695
tp3668
a(I695
I713
tp3669
a(I713
I707
tp3670
a(I707
I698
tp3671
a(I698
I699
tp3672
a(I699
I710
tp3673
aa(lp3674
(I1314
I1309
tp3675
a(I1309
I851
tp3676
a(I851
I852
tp3677
a(I852
I1322
tp3678
a(I1322
I1316
tp3679
a(I1316
I1317
tp3680
a(I1317
I1318
tp3681
a(I1318
I1321
tp3682
a(I1321
I1320
tp3683
a(I1320
I1314
tp3684
aa(lp3685
(I566
I567
tp3686
a(I567
I569
tp3687
a(I569
I568
tp3688
a(I568
I502
tp3689
a(I502
I503
tp3690
a(I503
I561
tp3691
a(I561
I562
tp3692
a(I562
I565
tp3693
a(I565
I563
tp3694
a(I563
I566
tp3695
aa(lp3696
(I756
I755
tp3697
a(I755
I757
tp3698
a(I757
I748
tp3699
a(I748
I749
tp3700
a(I749
I751
tp3701
a(I751
I752
tp3702
a(I752
I754
tp3703
a(I754
I734
tp3704
a(I734
I740
tp3705
a(I740
I756
tp3706
aa(lp3707
(I544
I547
tp3708
a(I547
I524
tp3709
a(I524
I494
tp3710
a(I494
I495
tp3711
a(I495
I548
tp3712
a(I548
I551
tp3713
a(I551
I549
tp3714
a(I549
I550
tp3715
a(I550
I545
tp3716
a(I545
I544
tp3717
aa(lp3718
(I820
I822
tp3719
a(I822
I823
tp3720
a(I823
I824
tp3721
a(I824
I816
tp3722
a(I816
I815
tp3723
a(I815
I818
tp3724
a(I818
I825
tp3725
a(I825
I826
tp3726
a(I826
I827
tp3727
a(I827
I820
tp3728
aa(lp3729
(I728
I726
tp3730
a(I726
I727
tp3731
a(I727
I725
tp3732
a(I725
I723
tp3733
a(I723
I724
tp3734
a(I724
I718
tp3735
a(I718
I717
tp3736
a(I717
I701
tp3737
a(I701
I703
tp3738
a(I703
I728
tp3739
aa(lp3740
(I896
I1255
tp3741
a(I1255
I1253
tp3742
a(I1253
I1226
tp3743
a(I1226
I1195
tp3744
a(I1195
I1196
tp3745
a(I1196
I1258
tp3746
a(I1258
I1257
tp3747
a(I1257
I1256
tp3748
a(I1256
I895
tp3749
a(I895
I896
tp3750
aa(lp3751
(I196
I192
tp3752
a(I192
I194
tp3753
a(I194
I195
tp3754
a(I195
I193
tp3755
a(I193
I190
tp3756
a(I190
I187
tp3757
a(I187
I186
tp3758
a(I186
I132
tp3759
a(I132
I133
tp3760
a(I133
I196
tp3761
aa(lp3762
(I1297
I1263
tp3763
a(I1263
I1274
tp3764
a(I1274
I1252
tp3765
a(I1252
I1230
tp3766
a(I1230
I1219
tp3767
a(I1219
I1008
tp3768
a(I1008
I1030
tp3769
a(I1030
I1308
tp3770
a(I1308
I1286
tp3771
a(I1286
I1297
tp3772
aa(lp3773
(I1020
I961
tp3774
a(I961
I962
tp3775
a(I962
I862
tp3776
a(I862
I871
tp3777
a(I871
I1144
tp3778
a(I1144
I995
tp3779
a(I995
I1000
tp3780
a(I1000
I1143
tp3781
a(I1143
I1142
tp3782
a(I1142
I1020
tp3783
aa(lp3784
(I198
I190
tp3785
a(I190
I193
tp3786
a(I193
I208
tp3787
a(I208
I206
tp3788
a(I206
I207
tp3789
a(I207
I205
tp3790
a(I205
I204
tp3791
a(I204
I203
tp3792
a(I203
I199
tp3793
a(I199
I198
tp3794
aa(lp3795
(I854
I852
tp3796
a(I852
I851
tp3797
a(I851
I850
tp3798
a(I850
I839
tp3799
a(I839
I836
tp3800
a(I836
I837
tp3801
a(I837
I848
tp3802
a(I848
I849
tp3803
a(I849
I855
tp3804
a(I855
I854
tp3805
aa(lp3806
(I416
I432
tp3807
a(I432
I428
tp3808
a(I428
I430
tp3809
a(I430
I438
tp3810
a(I438
I437
tp3811
a(I437
I439
tp3812
a(I439
I440
tp3813
a(I440
I441
tp3814
a(I441
I408
tp3815
a(I408
I416
tp3816
aa(lp3817
(I978
I977
tp3818
a(I977
I947
tp3819
a(I947
I946
tp3820
a(I946
I957
tp3821
a(I957
I971
tp3822
a(I971
I972
tp3823
a(I972
I976
tp3824
a(I976
I974
tp3825
a(I974
I973
tp3826
a(I973
I978
tp3827
aa(lp3828
(I785
I781
tp3829
a(I781
I783
tp3830
a(I783
I784
tp3831
a(I784
I782
tp3832
a(I782
I780
tp3833
a(I780
I779
tp3834
a(I779
I744
tp3835
a(I744
I725
tp3836
a(I725
I727
tp3837
a(I727
I785
tp3838
aa(lp3839
(I116
I355
tp3840
a(I355
I142
tp3841
a(I142
I144
tp3842
a(I144
I356
tp3843
a(I356
I149
tp3844
a(I149
I150
tp3845
a(I150
I351
tp3846
a(I351
I122
tp3847
a(I122
I115
tp3848
a(I115
I116
tp3849
aa(lp3850
(I1123
I1124
tp3851
a(I1124
I1125
tp3852
a(I1125
I1122
tp3853
a(I1122
I1078
tp3854
a(I1078
I1077
tp3855
a(I1077
I1083
tp3856
a(I1083
I1115
tp3857
a(I1115
I1118
tp3858
a(I1118
I1126
tp3859
a(I1126
I1123
tp3860
aa(lp3861
(I275
I276
tp3862
a(I276
I297
tp3863
a(I297
I298
tp3864
a(I298
I299
tp3865
a(I299
I301
tp3866
a(I301
I300
tp3867
a(I300
I255
tp3868
a(I255
I253
tp3869
a(I253
I259
tp3870
a(I259
I275
tp3871
aa(lp3872
(I728
I703
tp3873
a(I703
I704
tp3874
a(I704
I761
tp3875
a(I761
I760
tp3876
a(I760
I769
tp3877
a(I769
I800
tp3878
a(I800
I802
tp3879
a(I802
I801
tp3880
a(I801
I791
tp3881
a(I791
I728
tp3882
aa(lp3883
(I574
I563
tp3884
a(I563
I565
tp3885
a(I565
I571
tp3886
a(I571
I572
tp3887
a(I572
I579
tp3888
a(I579
I573
tp3889
a(I573
I576
tp3890
a(I576
I578
tp3891
a(I578
I577
tp3892
a(I577
I574
tp3893
aa(lp3894
(I1389
I1384
tp3895
a(I1384
I1391
tp3896
a(I1391
I19
tp3897
a(I19
I24
tp3898
a(I24
I23
tp3899
a(I23
I22
tp3900
a(I22
I21
tp3901
a(I21
I20
tp3902
a(I20
I15
tp3903
a(I15
I16
tp3904
a(I16
I1389
tp3905
aa(lp3906
(I855
I849
tp3907
a(I849
I1270
tp3908
a(I1270
I657
tp3909
a(I657
I656
tp3910
a(I656
I1275
tp3911
a(I1275
I1306
tp3912
a(I1306
I1305
tp3913
a(I1305
I1315
tp3914
a(I1315
I1323
tp3915
a(I1323
I1342
tp3916
a(I1342
I855
tp3917
aa(lp3918
(I1356
I1357
tp3919
a(I1357
I1343
tp3920
a(I1343
I1344
tp3921
a(I1344
I1353
tp3922
a(I1353
I1354
tp3923
a(I1354
I1355
tp3924
a(I1355
I1361
tp3925
a(I1361
I1360
tp3926
a(I1360
I1359
tp3927
a(I1359
I1358
tp3928
a(I1358
I1356
tp3929
aa(lp3930
(I658
I660
tp3931
a(I660
I662
tp3932
a(I662
I661
tp3933
a(I661
I663
tp3934
a(I663
I666
tp3935
a(I666
I665
tp3936
a(I665
I655
tp3937
a(I655
I650
tp3938
a(I650
I651
tp3939
a(I651
I659
tp3940
a(I659
I658
tp3941
aa(lp3942
(I264
I262
tp3943
a(I262
I261
tp3944
a(I261
I260
tp3945
a(I260
I241
tp3946
a(I241
I245
tp3947
a(I245
I268
tp3948
a(I268
I267
tp3949
a(I267
I266
tp3950
a(I266
I263
tp3951
a(I263
I265
tp3952
a(I265
I264
tp3953
aa(lp3954
(I8
I9
tp3955
a(I9
I7
tp3956
a(I7
I6
tp3957
a(I6
I10
tp3958
a(I10
I11
tp3959
a(I11
I13
tp3960
a(I13
I12
tp3961
a(I12
I1395
tp3962
a(I1395
I4
tp3963
a(I4
I5
tp3964
a(I5
I8
tp3965
aa(lp3966
(I875
I864
tp3967
a(I864
I180
tp3968
a(I180
I623
tp3969
a(I623
I107
tp3970
a(I107
I104
tp3971
a(I104
I106
tp3972
a(I106
I108
tp3973
a(I108
I109
tp3974
a(I109
I111
tp3975
a(I111
I110
tp3976
a(I110
I875
tp3977
aa(lp3978
(I764
I797
tp3979
a(I797
I819
tp3980
a(I819
I808
tp3981
a(I808
I842
tp3982
a(I842
I830
tp3983
a(I830
I853
tp3984
a(I853
I864
tp3985
a(I864
I875
tp3986
a(I875
I886
tp3987
a(I886
I753
tp3988
a(I753
I764
tp3989
aa(lp3990
(I1096
I1093
tp3991
a(I1093
I1094
tp3992
a(I1094
I1091
tp3993
a(I1091
I1085
tp3994
a(I1085
I1046
tp3995
a(I1046
I1037
tp3996
a(I1037
I1038
tp3997
a(I1038
I1092
tp3998
a(I1092
I1095
tp3999
a(I1095
I1098
tp4000
a(I1098
I1096
tp4001
aa(lp4002
(I109
I108
tp4003
a(I108
I100
tp4004
a(I100
I101
tp4005
a(I101
I116
tp4006
a(I116
I115
tp4007
a(I115
I564
tp4008
a(I564
I553
tp4009
a(I553
I586
tp4010
a(I586
I742
tp4011
a(I742
I112
tp4012
a(I112
I109
tp4013
aa(lp4014
(I1225
I1223
tp4015
a(I1223
I1221
tp4016
a(I1221
I1222
tp4017
a(I1222
I1220
tp4018
a(I1220
I1218
tp4019
a(I1218
I1202
tp4020
a(I1202
I1194
tp4021
a(I1194
I1195
tp4022
a(I1195
I1226
tp4023
a(I1226
I1224
tp4024
a(I1224
I1225
tp4025
aa(lp4026
(I840
I663
tp4027
a(I663
I661
tp4028
a(I661
I835
tp4029
a(I835
I836
tp4030
a(I836
I839
tp4031
a(I839
I847
tp4032
a(I847
I846
tp4033
a(I846
I844
tp4034
a(I844
I845
tp4035
a(I845
I843
tp4036
a(I843
I840
tp4037
aa(lp4038
(I601
I506
tp4039
a(I506
I502
tp4040
a(I502
I568
tp4041
a(I568
I616
tp4042
a(I616
I615
tp4043
a(I615
I613
tp4044
a(I613
I614
tp4045
a(I614
I612
tp4046
a(I612
I611
tp4047
a(I611
I610
tp4048
a(I610
I601
tp4049
aa(lp4050
(I1033
I1028
tp4051
a(I1028
I1031
tp4052
a(I1031
I1029
tp4053
a(I1029
I1024
tp4054
a(I1024
I1023
tp4055
a(I1023
I1010
tp4056
a(I1010
I982
tp4057
a(I982
I983
tp4058
a(I983
I1034
tp4059
a(I1034
I1032
tp4060
a(I1032
I1033
tp4061
aa(lp4062
(I912
I911
tp4063
a(I911
I910
tp4064
a(I910
I901
tp4065
a(I901
I899
tp4066
a(I899
I879
tp4067
a(I879
I881
tp4068
a(I881
I909
tp4069
a(I909
I907
tp4070
a(I907
I913
tp4071
a(I913
I914
tp4072
a(I914
I912
tp4073
aa(lp4074
(I1369
I1327
tp4075
a(I1327
I1333
tp4076
a(I1333
I1371
tp4077
a(I1371
I1370
tp4078
a(I1370
I1362
tp4079
a(I1362
I1364
tp4080
a(I1364
I1365
tp4081
a(I1365
I1367
tp4082
a(I1367
I1366
tp4083
a(I1366
I1368
tp4084
a(I1368
I1369
tp4085
aa(lp4086
(I314
I312
tp4087
a(I312
I325
tp4088
a(I325
I138
tp4089
a(I138
I140
tp4090
a(I140
I329
tp4091
a(I329
I330
tp4092
a(I330
I328
tp4093
a(I328
I327
tp4094
a(I327
I326
tp4095
a(I326
I331
tp4096
a(I331
I314
tp4097
aa(lp4098
(I669
I668
tp4099
a(I668
I638
tp4100
a(I638
I640
tp4101
a(I640
I679
tp4102
a(I679
I685
tp4103
a(I685
I680
tp4104
a(I680
I684
tp4105
a(I684
I683
tp4106
a(I683
I682
tp4107
a(I682
I681
tp4108
a(I681
I669
tp4109
aa(lp4110
(I1078
I1081
tp4111
a(I1081
I1079
tp4112
a(I1079
I1080
tp4113
a(I1080
I1067
tp4114
a(I1067
I1068
tp4115
a(I1068
I1074
tp4116
a(I1074
I1055
tp4117
a(I1055
I1059
tp4118
a(I1059
I1076
tp4119
a(I1076
I1077
tp4120
a(I1077
I1078
tp4121
aa(lp4122
(I467
I458
tp4123
a(I458
I459
tp4124
a(I459
I413
tp4125
a(I413
I435
tp4126
a(I435
I460
tp4127
a(I460
I462
tp4128
a(I462
I461
tp4129
a(I461
I463
tp4130
a(I463
I465
tp4131
a(I465
I466
tp4132
a(I466
I467
tp4133
aa(lp4134
(I692
I693
tp4135
a(I693
I691
tp4136
a(I691
I690
tp4137
a(I690
I688
tp4138
a(I688
I696
tp4139
a(I696
I687
tp4140
a(I687
I671
tp4141
a(I671
I674
tp4142
a(I674
I694
tp4143
a(I694
I695
tp4144
a(I695
I689
tp4145
a(I689
I692
tp4146
aa(lp4147
(I1388
I1387
tp4148
a(I1387
I1386
tp4149
a(I1386
I1372
tp4150
a(I1372
I1346
tp4151
a(I1346
I1347
tp4152
a(I1347
I1366
tp4153
a(I1366
I1367
tp4154
a(I1367
I1383
tp4155
a(I1383
I1384
tp4156
a(I1384
I1389
tp4157
a(I1389
I1390
tp4158
a(I1390
I1388
tp4159
aa(lp4160
(I1163
I1175
tp4161
a(I1175
I1197
tp4162
a(I1197
I1208
tp4163
a(I1208
I1186
tp4164
a(I1186
I1152
tp4165
a(I1152
I986
tp4166
a(I986
I997
tp4167
a(I997
I1141
tp4168
a(I1141
I1097
tp4169
a(I1097
I686
tp4170
a(I686
I697
tp4171
a(I697
I1163
tp4172
aa(lp4173
(I1348
I1347
tp4174
a(I1347
I1346
tp4175
a(I1346
I1345
tp4176
a(I1345
I1344
tp4177
a(I1344
I1343
tp4178
a(I1343
I1351
tp4179
a(I1351
I1350
tp4180
a(I1350
I1349
tp4181
a(I1349
I1317
tp4182
a(I1317
I1316
tp4183
a(I1316
I1328
tp4184
a(I1328
I1348
tp4185
aa(lp4186
(I1121
I1079
tp4187
a(I1079
I1081
tp4188
a(I1081
I1122
tp4189
a(I1122
I1125
tp4190
a(I1125
I1132
tp4191
a(I1132
I1133
tp4192
a(I1133
I1131
tp4193
a(I1131
I1127
tp4194
a(I1127
I1129
tp4195
a(I1129
I1128
tp4196
a(I1128
I1116
tp4197
a(I1116
I1121
tp4198
aa(lp4199
(I878
I889
tp4200
a(I889
I892
tp4201
a(I892
I893
tp4202
a(I893
I891
tp4203
a(I891
I890
tp4204
a(I890
I888
tp4205
a(I888
I894
tp4206
a(I894
I896
tp4207
a(I896
I895
tp4208
a(I895
I898
tp4209
a(I898
I877
tp4210
a(I877
I878
tp4211
aa(lp4212
(I1212
I1213
tp4213
a(I1213
I1216
tp4214
a(I1216
I1215
tp4215
a(I1215
I1214
tp4216
a(I1214
I921
tp4217
a(I921
I922
tp4218
a(I922
I1209
tp4219
a(I1209
I954
tp4220
a(I954
I956
tp4221
a(I956
I1210
tp4222
a(I1210
I1211
tp4223
a(I1211
I1212
tp4224
aa(lp4225
(I881
I879
tp4226
a(I879
I878
tp4227
a(I878
I877
tp4228
a(I877
I883
tp4229
a(I883
I882
tp4230
a(I882
I884
tp4231
a(I884
I887
tp4232
a(I887
I885
tp4233
a(I885
I857
tp4234
a(I857
I858
tp4235
a(I858
I880
tp4236
a(I880
I881
tp4237
aa(lp4238
(I457
I463
tp4239
a(I463
I461
tp4240
a(I461
I481
tp4241
a(I481
I500
tp4242
a(I500
I501
tp4243
a(I501
I504
tp4244
a(I504
I505
tp4245
a(I505
I503
tp4246
a(I503
I502
tp4247
a(I502
I506
tp4248
a(I506
I455
tp4249
a(I455
I457
tp4250
aa(lp4251
(I678
I658
tp4252
a(I658
I659
tp4253
a(I659
I667
tp4254
a(I667
I668
tp4255
a(I668
I669
tp4256
a(I669
I672
tp4257
a(I672
I673
tp4258
a(I673
I676
tp4259
a(I676
I674
tp4260
a(I674
I671
tp4261
a(I671
I670
tp4262
a(I670
I677
tp4263
a(I677
I678
tp4264
aa(lp4265
(I1034
I1060
tp4266
a(I1060
I1054
tp4267
a(I1054
I1070
tp4268
a(I1070
I1082
tp4269
a(I1082
I1090
tp4270
a(I1090
I1112
tp4271
a(I1112
I1113
tp4272
a(I1113
I1111
tp4273
a(I1111
I1101
tp4274
a(I1101
I1100
tp4275
a(I1100
I1110
tp4276
a(I1110
I1032
tp4277
a(I1032
I1034
tp4278
aa(lp4279
(I924
I926
tp4280
a(I926
I925
tp4281
a(I925
I923
tp4282
a(I923
I929
tp4283
a(I929
I910
tp4284
a(I910
I911
tp4285
a(I911
I918
tp4286
a(I918
I920
tp4287
a(I920
I922
tp4288
a(I922
I921
tp4289
a(I921
I927
tp4290
a(I927
I928
tp4291
a(I928
I924
tp4292
aa(lp4293
(I174
I177
tp4294
a(I177
I178
tp4295
a(I178
I179
tp4296
a(I179
I166
tp4297
a(I166
I165
tp4298
a(I165
I167
tp4299
a(I167
I168
tp4300
a(I168
I170
tp4301
a(I170
I172
tp4302
a(I172
I175
tp4303
a(I175
I176
tp4304
a(I176
I173
tp4305
a(I173
I174
tp4306
aa(lp4307
(I1200
I1269
tp4308
a(I1269
I613
tp4309
a(I613
I615
tp4310
a(I615
I1271
tp4311
a(I1271
I628
tp4312
a(I628
I626
tp4313
a(I626
I636
tp4314
a(I636
I654
tp4315
a(I654
I1270
tp4316
a(I1270
I849
tp4317
a(I849
I848
tp4318
a(I848
I861
tp4319
a(I861
I1200
tp4320
aa(lp4321
(I1001
I1002
tp4322
a(I1002
I985
tp4323
a(I985
I987
tp4324
a(I987
I994
tp4325
a(I994
I993
tp4326
a(I993
I992
tp4327
a(I992
I999
tp4328
a(I999
I998
tp4329
a(I998
I996
tp4330
a(I996
I1000
tp4331
a(I1000
I995
tp4332
a(I995
I1003
tp4333
a(I1003
I1001
tp4334
aa(lp4335
(I1238
I1237
tp4336
a(I1237
I1239
tp4337
a(I1239
I923
tp4338
a(I923
I925
tp4339
a(I925
I1233
tp4340
a(I1233
I1232
tp4341
a(I1232
I1235
tp4342
a(I1235
I1236
tp4343
a(I1236
I1234
tp4344
a(I1234
I1213
tp4345
a(I1213
I1212
tp4346
a(I1212
I1228
tp4347
a(I1228
I1238
tp4348
aa(lp4349
(I1061
I1062
tp4350
a(I1062
I1065
tp4351
a(I1065
I1066
tp4352
a(I1066
I1042
tp4353
a(I1042
I1043
tp4354
a(I1043
I1059
tp4355
a(I1059
I1055
tp4356
a(I1055
I1058
tp4357
a(I1058
I1056
tp4358
a(I1056
I1057
tp4359
a(I1057
I1054
tp4360
a(I1054
I1060
tp4361
a(I1060
I1061
tp4362
aa(lp4363
(I632
I633
tp4364
a(I633
I635
tp4365
a(I635
I634
tp4366
a(I634
I643
tp4367
a(I643
I641
tp4368
a(I641
I639
tp4369
a(I639
I640
tp4370
a(I640
I638
tp4371
a(I638
I637
tp4372
a(I637
I636
tp4373
a(I636
I626
tp4374
a(I626
I627
tp4375
a(I627
I632
tp4376
aa(lp4377
(I427
I404
tp4378
a(I404
I410
tp4379
a(I410
I431
tp4380
a(I431
I429
tp4381
a(I429
I430
tp4382
a(I430
I428
tp4383
a(I428
I381
tp4384
a(I381
I387
tp4385
a(I387
I393
tp4386
a(I393
I392
tp4387
a(I392
I423
tp4388
a(I423
I425
tp4389
a(I425
I427
tp4390
aa(lp4391
(I929
I1247
tp4392
a(I1247
I1249
tp4393
a(I1249
I1250
tp4394
a(I1250
I1251
tp4395
a(I1251
I1224
tp4396
a(I1224
I1226
tp4397
a(I1226
I1253
tp4398
a(I1253
I1254
tp4399
a(I1254
I894
tp4400
a(I894
I888
tp4401
a(I888
I901
tp4402
a(I901
I910
tp4403
a(I910
I929
tp4404
aa(lp4405
(I781
I785
tp4406
a(I785
I726
tp4407
a(I726
I728
tp4408
a(I728
I791
tp4409
a(I791
I792
tp4410
a(I792
I793
tp4411
a(I793
I771
tp4412
a(I771
I770
tp4413
a(I770
I776
tp4414
a(I776
I787
tp4415
a(I787
I788
tp4416
a(I788
I790
tp4417
a(I790
I789
tp4418
a(I789
I781
tp4419
aa(lp4420
(I364
I363
tp4421
a(I363
I365
tp4422
a(I365
I366
tp4423
a(I366
I189
tp4424
a(I189
I188
tp4425
a(I188
I197
tp4426
a(I197
I201
tp4427
a(I201
I256
tp4428
a(I256
I342
tp4429
a(I342
I345
tp4430
a(I345
I349
tp4431
a(I349
I362
tp4432
a(I362
I361
tp4433
a(I361
I364
tp4434
aa(lp4435
(I681
I706
tp4436
a(I706
I702
tp4437
a(I702
I705
tp4438
a(I705
I704
tp4439
a(I704
I703
tp4440
a(I703
I701
tp4441
a(I701
I700
tp4442
a(I700
I688
tp4443
a(I688
I690
tp4444
a(I690
I699
tp4445
a(I699
I698
tp4446
a(I698
I672
tp4447
a(I672
I669
tp4448
a(I669
I681
tp4449
aa(lp4450
(I607
I605
tp4451
a(I605
I606
tp4452
a(I606
I604
tp4453
a(I604
I603
tp4454
a(I603
I602
tp4455
a(I602
I158
tp4456
a(I158
I147
tp4457
a(I147
I448
tp4458
a(I448
I451
tp4459
a(I451
I455
tp4460
a(I455
I506
tp4461
a(I506
I601
tp4462
a(I601
I609
tp4463
a(I609
I607
tp4464
aa(lp4465
(I520
I531
tp4466
a(I531
I444
tp4467
a(I444
I443
tp4468
a(I443
I435
tp4469
a(I435
I413
tp4470
a(I413
I424
tp4471
a(I424
I402
tp4472
a(I402
I391
tp4473
a(I391
I380
tp4474
a(I380
I347
tp4475
a(I347
I369
tp4476
a(I369
I358
tp4477
a(I358
I313
tp4478
a(I313
I520
tp4479
aa(lp4480
(I593
I594
tp4481
a(I594
I595
tp4482
a(I595
I487
tp4483
a(I487
I484
tp4484
a(I484
I472
tp4485
a(I472
I468
tp4486
a(I468
I444
tp4487
a(I444
I531
tp4488
a(I531
I542
tp4489
a(I542
I598
tp4490
a(I598
I596
tp4491
a(I596
I567
tp4492
a(I567
I566
tp4493
a(I566
I593
tp4494
aa(lp4495
(I1043
I1042
tp4496
a(I1042
I1053
tp4497
a(I1053
I1051
tp4498
a(I1051
I1050
tp4499
a(I1050
I1049
tp4500
a(I1049
I1047
tp4501
a(I1047
I1048
tp4502
a(I1048
I1036
tp4503
a(I1036
I1035
tp4504
a(I1035
I1037
tp4505
a(I1037
I1046
tp4506
a(I1046
I1045
tp4507
a(I1045
I1044
tp4508
a(I1044
I1043
tp4509
aa(lp4510
(I1365
I1364
tp4511
a(I1364
I1345
tp4512
a(I1345
I1346
tp4513
a(I1346
I1372
tp4514
a(I1372
I1375
tp4515
a(I1375
I1382
tp4516
a(I1382
I1376
tp4517
a(I1376
I1381
tp4518
a(I1381
I1378
tp4519
a(I1378
I1379
tp4520
a(I1379
I1380
tp4521
a(I1380
I1377
tp4522
a(I1377
I1373
tp4523
a(I1373
I1365
tp4524
aa(lp4525
(I1189
I1188
tp4526
a(I1188
I832
tp4527
a(I832
I612
tp4528
a(I612
I614
tp4529
a(I614
I1199
tp4530
a(I1199
I1200
tp4531
a(I1200
I861
tp4532
a(I861
I857
tp4533
a(I857
I885
tp4534
a(I885
I1198
tp4535
a(I1198
I1196
tp4536
a(I1196
I1195
tp4537
a(I1195
I1194
tp4538
a(I1194
I1189
tp4539
aa(lp4540
(I1189
I1191
tp4541
a(I1191
I1192
tp4542
a(I1192
I972
tp4543
a(I972
I971
tp4544
a(I971
I979
tp4545
a(I979
I991
tp4546
a(I991
I1190
tp4547
a(I1190
I1181
tp4548
a(I1181
I1182
tp4549
a(I1182
I1185
tp4550
a(I1185
I1187
tp4551
a(I1187
I872
tp4552
a(I872
I876
tp4553
a(I876
I1188
tp4554
a(I1188
I1189
tp4555
aa(lp4556
(I620
I597
tp4557
a(I597
I608
tp4558
a(I608
I586
tp4559
a(I586
I553
tp4560
a(I553
I486
tp4561
a(I486
I497
tp4562
a(I497
I708
tp4563
a(I708
I697
tp4564
a(I697
I686
tp4565
a(I686
I675
tp4566
a(I675
I664
tp4567
a(I664
I642
tp4568
a(I642
I653
tp4569
a(I653
I631
tp4570
a(I631
I620
tp4571
aa(lp4572
(I864
I853
tp4573
a(I853
I1086
tp4574
a(I1086
I1152
tp4575
a(I1152
I1186
tp4576
a(I1186
I125
tp4577
a(I125
I114
tp4578
a(I114
I102
tp4579
a(I102
I136
tp4580
a(I136
I169
tp4581
a(I169
I147
tp4582
a(I147
I158
tp4583
a(I158
I202
tp4584
a(I202
I191
tp4585
a(I191
I180
tp4586
a(I180
I864
tp4587
aa(lp4588
(I975
I1075
tp4589
a(I1075
I1019
tp4590
a(I1019
I1064
tp4591
a(I1064
I1052
tp4592
a(I1052
I1041
tp4593
a(I1041
I1030
tp4594
a(I1030
I1008
tp4595
a(I1008
I997
tp4596
a(I997
I986
tp4597
a(I986
I1086
tp4598
a(I1086
I853
tp4599
a(I853
I830
tp4600
a(I830
I941
tp4601
a(I941
I964
tp4602
a(I964
I975
tp4603
aa(lp4604
(I1005
I1011
tp4605
a(I1011
I1015
tp4606
a(I1015
I1012
tp4607
a(I1012
I1014
tp4608
a(I1014
I1013
tp4609
a(I1013
I992
tp4610
a(I992
I993
tp4611
a(I993
I1004
tp4612
a(I1004
I980
tp4613
a(I980
I982
tp4614
a(I982
I1010
tp4615
a(I1010
I1007
tp4616
a(I1007
I1009
tp4617
a(I1009
I1006
tp4618
a(I1006
I1005
tp4619
aa(lp4620
(I1354
I61
tp4621
a(I61
I67
tp4622
a(I67
I75
tp4623
a(I75
I1325
tp4624
a(I1325
I1326
tp4625
a(I1326
I77
tp4626
a(I77
I1318
tp4627
a(I1318
I1317
tp4628
a(I1317
I1349
tp4629
a(I1349
I78
tp4630
a(I78
I79
tp4631
a(I79
I81
tp4632
a(I81
I83
tp4633
a(I83
I82
tp4634
a(I82
I1355
tp4635
a(I1355
I1354
tp4636
aa(lp4637
(I476
I483
tp4638
a(I483
I482
tp4639
a(I482
I481
tp4640
a(I481
I461
tp4641
a(I461
I462
tp4642
a(I462
I479
tp4643
a(I479
I480
tp4644
a(I480
I469
tp4645
a(I469
I472
tp4646
a(I472
I484
tp4647
a(I484
I473
tp4648
a(I473
I485
tp4649
a(I485
I474
tp4650
a(I474
I478
tp4651
a(I478
I477
tp4652
a(I477
I476
tp4653
aa(lp4654
(I249
I242
tp4655
a(I242
I248
tp4656
a(I248
I243
tp4657
a(I243
I244
tp4658
a(I244
I246
tp4659
a(I246
I245
tp4660
a(I245
I241
tp4661
a(I241
I215
tp4662
a(I215
I214
tp4663
a(I214
I196
tp4664
a(I196
I133
tp4665
a(I133
I135
tp4666
a(I135
I250
tp4667
a(I250
I252
tp4668
a(I252
I251
tp4669
a(I251
I249
tp4670
aa(lp4671
(I137
I282
tp4672
a(I282
I281
tp4673
a(I281
I279
tp4674
a(I279
I278
tp4675
a(I278
I277
tp4676
a(I277
I276
tp4677
a(I276
I275
tp4678
a(I275
I262
tp4679
a(I262
I264
tp4680
a(I264
I273
tp4681
a(I273
I271
tp4682
a(I271
I272
tp4683
a(I272
I270
tp4684
a(I270
I274
tp4685
a(I274
I134
tp4686
a(I134
I137
tp4687
aa(lp4688
(I844
I846
tp4689
a(I846
I1304
tp4690
a(I1304
I1303
tp4691
a(I1303
I1302
tp4692
a(I1302
I1301
tp4693
a(I1301
I1305
tp4694
a(I1305
I1306
tp4695
a(I1306
I1280
tp4696
a(I1280
I1278
tp4697
a(I1278
I1290
tp4698
a(I1290
I1293
tp4699
a(I1293
I1294
tp4700
a(I1294
I1298
tp4701
a(I1298
I1300
tp4702
a(I1300
I1299
tp4703
a(I1299
I844
tp4704
aa(lp4705
(I871
I862
tp4706
a(I862
I863
tp4707
a(I863
I865
tp4708
a(I865
I866
tp4709
a(I866
I867
tp4710
a(I867
I870
tp4711
a(I870
I869
tp4712
a(I869
I868
tp4713
a(I868
I856
tp4714
a(I856
I838
tp4715
a(I838
I829
tp4716
a(I829
I831
tp4717
a(I831
I876
tp4718
a(I876
I872
tp4719
a(I872
I874
tp4720
a(I874
I873
tp4721
a(I873
I871
tp4722
aa(lp4723
(I956
I954
tp4724
a(I954
I955
tp4725
a(I955
I920
tp4726
a(I920
I918
tp4727
a(I918
I931
tp4728
a(I931
I936
tp4729
a(I936
I948
tp4730
a(I948
I951
tp4731
a(I951
I949
tp4732
a(I949
I950
tp4733
a(I950
I939
tp4734
a(I939
I940
tp4735
a(I940
I944
tp4736
a(I944
I945
tp4737
a(I945
I946
tp4738
a(I946
I947
tp4739
a(I947
I956
tp4740
aa(lp4741
(I965
I963
tp4742
a(I963
I962
tp4743
a(I962
I961
tp4744
a(I961
I958
tp4745
a(I958
I960
tp4746
a(I960
I959
tp4747
a(I959
I957
tp4748
a(I957
I946
tp4749
a(I946
I945
tp4750
a(I945
I860
tp4751
a(I860
I856
tp4752
a(I856
I868
tp4753
a(I868
I968
tp4754
a(I968
I969
tp4755
a(I969
I970
tp4756
a(I970
I967
tp4757
a(I967
I966
tp4758
a(I966
I965
tp4759
aa(lp4760
(I19
I1391
tp4761
a(I1391
I1392
tp4762
a(I1392
I26
tp4763
a(I26
I30
tp4764
a(I30
I29
tp4765
a(I29
I28
tp4766
a(I28
I27
tp4767
a(I27
I31
tp4768
a(I31
I1376
tp4769
a(I1376
I1382
tp4770
a(I1382
I39
tp4771
a(I39
I38
tp4772
a(I38
I37
tp4773
a(I37
I34
tp4774
a(I34
I35
tp4775
a(I35
I32
tp4776
a(I32
I33
tp4777
a(I33
I19
tp4778
aa(lp4779
(I1338
I1336
tp4780
a(I1336
I1335
tp4781
a(I1335
I1334
tp4782
a(I1334
I1333
tp4783
a(I1333
I1327
tp4784
a(I1327
I1329
tp4785
a(I1329
I1331
tp4786
a(I1331
I1332
tp4787
a(I1332
I1328
tp4788
a(I1328
I1316
tp4789
a(I1316
I1322
tp4790
a(I1322
I1340
tp4791
a(I1340
I1342
tp4792
a(I1342
I1323
tp4793
a(I1323
I1324
tp4794
a(I1324
I1337
tp4795
a(I1337
I1339
tp4796
a(I1339
I1338
tp4797
aa(lp4798
(I733
I745
tp4799
a(I745
I746
tp4800
a(I746
I720
tp4801
a(I720
I721
tp4802
a(I721
I729
tp4803
a(I729
I732
tp4804
a(I732
I723
tp4805
a(I723
I725
tp4806
a(I725
I744
tp4807
a(I744
I743
tp4808
a(I743
I741
tp4809
a(I741
I740
tp4810
a(I740
I734
tp4811
a(I734
I739
tp4812
a(I739
I737
tp4813
a(I737
I738
tp4814
a(I738
I736
tp4815
a(I736
I735
tp4816
a(I735
I733
tp4817
aa(lp4818
(I417
I416
tp4819
a(I416
I408
tp4820
a(I408
I415
tp4821
a(I415
I414
tp4822
a(I414
I412
tp4823
a(I412
I411
tp4824
a(I411
I409
tp4825
a(I409
I410
tp4826
a(I410
I404
tp4827
a(I404
I407
tp4828
a(I407
I405
tp4829
a(I405
I406
tp4830
a(I406
I403
tp4831
a(I403
I401
tp4832
a(I401
I400
tp4833
a(I400
I395
tp4834
a(I395
I396
tp4835
a(I396
I399
tp4836
a(I399
I379
tp4837
a(I379
I384
tp4838
a(I384
I418
tp4839
a(I418
I417
tp4840
aa(lp4841
(I148
I152
tp4842
a(I152
I153
tp4843
a(I153
I162
tp4844
a(I162
I377
tp4845
a(I377
I387
tp4846
a(I387
I381
tp4847
a(I381
I382
tp4848
a(I382
I386
tp4849
a(I386
I385
tp4850
a(I385
I383
tp4851
a(I383
I384
tp4852
a(I384
I379
tp4853
a(I379
I378
tp4854
a(I378
I376
tp4855
a(I376
I375
tp4856
a(I375
I365
tp4857
a(I365
I363
tp4858
a(I363
I373
tp4859
a(I373
I374
tp4860
a(I374
I354
tp4861
a(I354
I351
tp4862
a(I351
I150
tp4863
a(I150
I148
tp4864
aa(lp4865
(I138
I137
tp4866
a(I137
I134
tp4867
a(I134
I135
tp4868
a(I135
I133
tp4869
a(I133
I132
tp4870
a(I132
I131
tp4871
a(I131
I130
tp4872
a(I130
I129
tp4873
a(I129
I128
tp4874
a(I128
I127
tp4875
a(I127
I126
tp4876
a(I126
I124
tp4877
a(I124
I144
tp4878
a(I144
I142
tp4879
a(I142
I143
tp4880
a(I143
I145
tp4881
a(I145
I118
tp4882
a(I118
I119
tp4883
a(I119
I123
tp4884
a(I123
I141
tp4885
a(I141
I139
tp4886
a(I139
I140
tp4887
a(I140
I138
tp4888
aa.